                                      1 ;--------------------------------------------------------
                                      2 ; File Created by SDCC : free open source ANSI-C Compiler
                                      3 ; Version 4.0.7 #12016 (Mac OS X x86_64)
                                      4 ;--------------------------------------------------------
                                      5 	.module awele_gb
                                      6 	.optsdcc -mgbz80
                                      7 	
                                      8 ;--------------------------------------------------------
                                      9 ; Public variables in this module
                                     10 ;--------------------------------------------------------
                                     11 	.globl _effaceChr
                                     12 	.globl _effaceLigne
                                     13 	.globl _revers
                                     14 	.globl _color
                                     15 	.globl _gotogxy
                                     16 	.globl _wrtchr
                                     17 	.globl _gprintf
                                     18 	.globl _gprint
                                     19 	.globl _waitpadup
                                     20 	.globl _waitpad
                                     21 	.globl _joypad
                                     22 	.globl _exit
                                     23 	.globl _printxy
                                     24 	.globl _initJoystick
                                     25 	.globl _initPlateau
                                     26 	.globl _getkj
                                     27 	.globl _menuOptions
                                     28 	.globl _affPlateau
                                     29 	.globl _clrscr
                                     30 	.globl _afficherResultats
                                     31 	.globl _afficherPosEval
                                     32 	.globl _afficherAttente
                                     33 	.globl _effacerAttente
                                     34 	.globl _choixJoueur
                                     35 ;--------------------------------------------------------
                                     36 ; special function registers
                                     37 ;--------------------------------------------------------
                                     38 ;--------------------------------------------------------
                                     39 ; ram data
                                     40 ;--------------------------------------------------------
                                     41 	.area _DATA
                                     42 ;--------------------------------------------------------
                                     43 ; absolute external ram data
                                     44 ;--------------------------------------------------------
                                     45 	.area _DABS (ABS)
                                     46 ;--------------------------------------------------------
                                     47 ; global & static initialisations
                                     48 ;--------------------------------------------------------
                                     49 	.area _HOME
                                     50 	.area _GSINIT
                                     51 	.area _GSFINAL
                                     52 	.area _GSINIT
                                     53 ;--------------------------------------------------------
                                     54 ; Home
                                     55 ;--------------------------------------------------------
                                     56 	.area _HOME
                                     57 	.area _HOME
                                     58 ;--------------------------------------------------------
                                     59 ; code
                                     60 ;--------------------------------------------------------
                                     61 	.area _CODE
                                     62 ;src/gameboy/awele_gb.c:51: void printxy(UBYTE x, UBYTE y, BOOLEAN rv, STRPTR s)
                                     63 ;	---------------------------------
                                     64 ; Function printxy
                                     65 ; ---------------------------------
      000000                         66 _printxy::
                                     67 ;src/gameboy/awele_gb.c:53: gotogxy(x,y);
      000000 F8 03                   68 	ldhl	sp,	#3
      000002 7E                      69 	ld	a, (hl)
      000003 F5                      70 	push	af
      000004 33                      71 	inc	sp
      000005 2B                      72 	dec	hl
      000006 7E                      73 	ld	a, (hl)
      000007 F5                      74 	push	af
      000008 33                      75 	inc	sp
      000009 CDr00r00                76 	call	_gotogxy
      00000C E8 02                   77 	add	sp, #2
                                     78 ;src/gameboy/awele_gb.c:54: if(rv)	color(WHITE, DKGREY, SOLID);
      00000E F8 04                   79 	ldhl	sp,	#4
      000010 7E                      80 	ld	a, (hl)
      000011 B7                      81 	or	a, a
      000012 28 0F                   82 	jr	Z, 00102$
      000014 AF                      83 	xor	a, a
      000015 57                      84 	ld	d,a
      000016 1E 02                   85 	ld	e,#0x02
      000018 D5                      86 	push	de
      000019 AF                      87 	xor	a, a
      00001A F5                      88 	push	af
      00001B 33                      89 	inc	sp
      00001C CDr00r00                90 	call	_color
      00001F E8 03                   91 	add	sp, #3
      000021 18 0D                   92 	jr	00103$
      000023                         93 00102$:
                                     94 ;src/gameboy/awele_gb.c:55: else	color(BLACK, WHITE, SOLID);
      000023 AF                      95 	xor	a, a
      000024 F5                      96 	push	af
      000025 33                      97 	inc	sp
      000026 AF                      98 	xor	a, a
      000027 57                      99 	ld	d,a
      000028 1E 03                  100 	ld	e,#0x03
      00002A D5                     101 	push	de
      00002B CDr00r00               102 	call	_color
      00002E E8 03                  103 	add	sp, #3
      000030                        104 00103$:
                                    105 ;src/gameboy/awele_gb.c:56: gprintf(s);
      000030 F8 05                  106 	ldhl	sp,	#5
      000032 2A                     107 	ld	a, (hl+)
      000033 66                     108 	ld	h, (hl)
      000034 6F                     109 	ld	l, a
      000035 E5                     110 	push	hl
      000036 CDr00r00               111 	call	_gprintf
      000039 E8 02                  112 	add	sp, #2
                                    113 ;src/gameboy/awele_gb.c:58: }
      00003B C9                     114 	ret
                                    115 ;src/gameboy/awele_gb.c:60: void revers(BOOLEAN b)
                                    116 ;	---------------------------------
                                    117 ; Function revers
                                    118 ; ---------------------------------
      00003C                        119 _revers::
                                    120 ;src/gameboy/awele_gb.c:62: if(b)	color(WHITE, DKGREY, SOLID);
      00003C F8 02                  121 	ldhl	sp,	#2
      00003E 7E                     122 	ld	a, (hl)
      00003F B7                     123 	or	a, a
      000040 28 0E                  124 	jr	Z, 00102$
      000042 AF                     125 	xor	a, a
      000043 57                     126 	ld	d,a
      000044 1E 02                  127 	ld	e,#0x02
      000046 D5                     128 	push	de
      000047 AF                     129 	xor	a, a
      000048 F5                     130 	push	af
      000049 33                     131 	inc	sp
      00004A CDr00r00               132 	call	_color
      00004D E8 03                  133 	add	sp, #3
      00004F C9                     134 	ret
      000050                        135 00102$:
                                    136 ;src/gameboy/awele_gb.c:63: else	color(BLACK, WHITE, SOLID);
      000050 AF                     137 	xor	a, a
      000051 F5                     138 	push	af
      000052 33                     139 	inc	sp
      000053 AF                     140 	xor	a, a
      000054 57                     141 	ld	d,a
      000055 1E 03                  142 	ld	e,#0x03
      000057 D5                     143 	push	de
      000058 CDr00r00               144 	call	_color
      00005B E8 03                  145 	add	sp, #3
                                    146 ;src/gameboy/awele_gb.c:64: }
      00005D C9                     147 	ret
                                    148 ;src/gameboy/awele_gb.c:66: void initJoystick(){}
                                    149 ;	---------------------------------
                                    150 ; Function initJoystick
                                    151 ; ---------------------------------
      00005E                        152 _initJoystick::
      00005E C9                     153 	ret
                                    154 ;src/gameboy/awele_gb.c:67: void initPlateau(){}
                                    155 ;	---------------------------------
                                    156 ; Function initPlateau
                                    157 ; ---------------------------------
      00005F                        158 _initPlateau::
      00005F C9                     159 	ret
                                    160 ;src/gameboy/awele_gb.c:69: UBYTE getkj()
                                    161 ;	---------------------------------
                                    162 ; Function getkj
                                    163 ; ---------------------------------
      000060                        164 _getkj::
                                    165 ;src/gameboy/awele_gb.c:71: UBYTE c=0,j=0;
      000060 0E 00                  166 	ld	c, #0x00
                                    167 ;src/gameboy/awele_gb.c:73: while(!(pad=joypad()));
      000062                        168 00101$:
      000062 CDr00r00               169 	call	_joypad
      000065 16 00                  170 	ld	d, #0x00
      000067 6B                     171 	ld	l, e
      000068 7A                     172 	ld	a, d
      000069 B3                     173 	or	a, e
      00006A 28 F6                  174 	jr	Z, 00101$
                                    175 ;src/gameboy/awele_gb.c:76: if(pad &  J_UP) c = KEY_UP;
      00006C CB 55                  176 	bit	2, l
      00006E 28 02                  177 	jr	Z, 00105$
      000070 0E 0B                  178 	ld	c, #0x0b
      000072                        179 00105$:
                                    180 ;src/gameboy/awele_gb.c:77: if(pad &  J_DOWN) c = KEY_DOWN;
      000072 CB 5D                  181 	bit	3, l
      000074 28 02                  182 	jr	Z, 00107$
      000076 0E 0A                  183 	ld	c, #0x0a
      000078                        184 00107$:
                                    185 ;src/gameboy/awele_gb.c:78: if(pad &  J_LEFT) c = KEY_LEFT;
      000078 CB 4D                  186 	bit	1, l
      00007A 28 02                  187 	jr	Z, 00109$
      00007C 0E 08                  188 	ld	c, #0x08
      00007E                        189 00109$:
                                    190 ;src/gameboy/awele_gb.c:79: if(pad &  J_RIGHT) c = KEY_RIGHT;
      00007E CB 45                  191 	bit	0, l
      000080 28 02                  192 	jr	Z, 00111$
      000082 0E 09                  193 	ld	c, #0x09
      000084                        194 00111$:
                                    195 ;src/gameboy/awele_gb.c:80: if(pad &  J_A) c = KEY_RETURN;
      000084 CB 65                  196 	bit	4, l
      000086 28 02                  197 	jr	Z, 00113$
      000088 0E 0D                  198 	ld	c, #0x0d
      00008A                        199 00113$:
                                    200 ;src/gameboy/awele_gb.c:82: waitpadup();
      00008A CDr00r00               201 	call	_waitpadup
                                    202 ;src/gameboy/awele_gb.c:84: return c;
      00008D 59                     203 	ld	e, c
                                    204 ;src/gameboy/awele_gb.c:85: }
      00008E C9                     205 	ret
                                    206 ;src/gameboy/awele_gb.c:89: UBYTE menuOptions(void)
                                    207 ;	---------------------------------
                                    208 ; Function menuOptions
                                    209 ; ---------------------------------
      00008F                        210 _menuOptions::
      00008F E8 F8                  211 	add	sp, #-8
                                    212 ;src/gameboy/awele_gb.c:94: clrscr();
      000091 CDrE4r05               213 	call	_clrscr
                                    214 ;src/gameboy/awele_gb.c:95: i=2; // par défaut PvC
      000094 F8 07                  215 	ldhl	sp,	#7
      000096 36 02                  216 	ld	(hl), #0x02
                                    217 ;src/gameboy/awele_gb.c:96: do
      000098                        218 00107$:
                                    219 ;src/gameboy/awele_gb.c:98: gotogxy(0,1);revers(i==1);gprintf(gOptionJoueurs[0]);
      000098 3E 01                  220 	ld	a, #0x01
      00009A F5                     221 	push	af
      00009B 33                     222 	inc	sp
      00009C AF                     223 	xor	a, a
      00009D F5                     224 	push	af
      00009E 33                     225 	inc	sp
      00009F CDr00r00               226 	call	_gotogxy
      0000A2 E8 02                  227 	add	sp, #2
      0000A4 F8 07                  228 	ldhl	sp,	#7
      0000A6 7E                     229 	ld	a, (hl)
      0000A7 3D                     230 	dec	a
      0000A8 3E 01                  231 	ld	a, #0x01
      0000AA 28 01                  232 	jr	Z, 00282$
      0000AC AF                     233 	xor	a, a
      0000AD                        234 00282$:
      0000AD F5                     235 	push	af
      0000AE 33                     236 	inc	sp
      0000AF CDr3Cr00               237 	call	_revers
      0000B2 33                     238 	inc	sp
      0000B3 21r00r00               239 	ld	hl, #_gOptionJoueurs
      0000B6 2A                     240 	ld	a, (hl+)
      0000B7 4F                     241 	ld	c, a
      0000B8 46                     242 	ld	b, (hl)
      0000B9 C5                     243 	push	bc
      0000BA CDr00r00               244 	call	_gprintf
      0000BD E8 02                  245 	add	sp, #2
                                    246 ;src/gameboy/awele_gb.c:99: gotogxy(0,2);revers(i==2);gprintf(gOptionJoueurs[1]);
      0000BF 3E 02                  247 	ld	a, #0x02
      0000C1 F5                     248 	push	af
      0000C2 33                     249 	inc	sp
      0000C3 AF                     250 	xor	a, a
      0000C4 F5                     251 	push	af
      0000C5 33                     252 	inc	sp
      0000C6 CDr00r00               253 	call	_gotogxy
      0000C9 E8 02                  254 	add	sp, #2
      0000CB F8 07                  255 	ldhl	sp,	#7
      0000CD 7E                     256 	ld	a, (hl)
      0000CE D6 02                  257 	sub	a, #0x02
      0000D0 3E 01                  258 	ld	a, #0x01
      0000D2 28 01                  259 	jr	Z, 00284$
      0000D4 AF                     260 	xor	a, a
      0000D5                        261 00284$:
      0000D5 F5                     262 	push	af
      0000D6 33                     263 	inc	sp
      0000D7 CDr3Cr00               264 	call	_revers
      0000DA 33                     265 	inc	sp
      0000DB 21r02r00               266 	ld	hl, #(_gOptionJoueurs + 0x0002)
      0000DE 2A                     267 	ld	a, (hl+)
      0000DF 4F                     268 	ld	c, a
      0000E0 46                     269 	ld	b, (hl)
      0000E1 C5                     270 	push	bc
      0000E2 CDr00r00               271 	call	_gprintf
      0000E5 E8 02                  272 	add	sp, #2
                                    273 ;src/gameboy/awele_gb.c:100: gotogxy(0,3);revers(i==3);gprintf(gOptionJoueurs[2]);
      0000E7 3E 03                  274 	ld	a, #0x03
      0000E9 F5                     275 	push	af
      0000EA 33                     276 	inc	sp
      0000EB AF                     277 	xor	a, a
      0000EC F5                     278 	push	af
      0000ED 33                     279 	inc	sp
      0000EE CDr00r00               280 	call	_gotogxy
      0000F1 E8 02                  281 	add	sp, #2
      0000F3 F8 07                  282 	ldhl	sp,	#7
      0000F5 7E                     283 	ld	a, (hl)
      0000F6 D6 03                  284 	sub	a, #0x03
      0000F8 3E 01                  285 	ld	a, #0x01
      0000FA 28 01                  286 	jr	Z, 00286$
      0000FC AF                     287 	xor	a, a
      0000FD                        288 00286$:
      0000FD F5                     289 	push	af
      0000FE 33                     290 	inc	sp
      0000FF CDr3Cr00               291 	call	_revers
      000102 33                     292 	inc	sp
      000103 21r04r00               293 	ld	hl, #(_gOptionJoueurs + 0x0004)
      000106 2A                     294 	ld	a, (hl+)
      000107 4F                     295 	ld	c, a
      000108 46                     296 	ld	b, (hl)
      000109 C5                     297 	push	bc
      00010A CDr00r00               298 	call	_gprintf
      00010D E8 02                  299 	add	sp, #2
                                    300 ;src/gameboy/awele_gb.c:101: revers(FALSE);
      00010F AF                     301 	xor	a, a
      000110 F5                     302 	push	af
      000111 33                     303 	inc	sp
      000112 CDr3Cr00               304 	call	_revers
      000115 33                     305 	inc	sp
                                    306 ;src/gameboy/awele_gb.c:102: c = getkj();
      000116 CDr60r00               307 	call	_getkj
      000119 F8 02                  308 	ldhl	sp,	#2
      00011B 73                     309 	ld	(hl), e
                                    310 ;src/gameboy/awele_gb.c:103: if(c == KEY_UP && i>1) i--;
      00011C 7E                     311 	ld	a, (hl)
      00011D D6 0B                  312 	sub	a, #0x0b
      00011F 20 08                  313 	jr	NZ, 00102$
      000121 3E 01                  314 	ld	a, #0x01
      000123 F8 07                  315 	ldhl	sp,	#7
      000125 96                     316 	sub	a, (hl)
      000126 30 01                  317 	jr	NC, 00102$
      000128 35                     318 	dec	(hl)
      000129                        319 00102$:
                                    320 ;src/gameboy/awele_gb.c:104: if(c == KEY_DOWN && i<3) i++;
      000129 F8 02                  321 	ldhl	sp,	#2
      00012B 7E                     322 	ld	a, (hl)
      00012C D6 0A                  323 	sub	a, #0x0a
      00012E 20 08                  324 	jr	NZ, 00108$
      000130 F8 07                  325 	ldhl	sp,	#7
      000132 7E                     326 	ld	a, (hl)
      000133 D6 03                  327 	sub	a, #0x03
      000135 30 01                  328 	jr	NC, 00108$
      000137 34                     329 	inc	(hl)
      000138                        330 00108$:
                                    331 ;src/gameboy/awele_gb.c:105: } while(c != KEY_RETURN);
      000138 F8 02                  332 	ldhl	sp,	#2
      00013A 7E                     333 	ld	a, (hl)
      00013B D6 0D                  334 	sub	a, #0x0d
      00013D C2r98r00               335 	jp	NZ,00107$
                                    336 ;src/gameboy/awele_gb.c:112: switch(i)
      000140 F8 07                  337 	ldhl	sp,	#7
      000142 7E                     338 	ld	a, (hl)
      000143 3D                     339 	dec	a
      000144 28 12                  340 	jr	Z, 00110$
      000146 F8 07                  341 	ldhl	sp,	#7
      000148 7E                     342 	ld	a, (hl)
      000149 D6 02                  343 	sub	a, #0x02
      00014B 28 2D                  344 	jr	Z, 00111$
      00014D F8 07                  345 	ldhl	sp,	#7
      00014F 7E                     346 	ld	a, (hl)
      000150 D6 03                  347 	sub	a, #0x03
      000152 CAr2Dr02               348 	jp	Z,00128$
      000155 C3r2Cr03               349 	jp	00139$
                                    350 ;src/gameboy/awele_gb.c:114: case 1:
      000158                        351 00110$:
                                    352 ;src/gameboy/awele_gb.c:115: printxy(0,l,FALSE,gJ1commence);
      000158 21r00r00               353 	ld	hl, #_gJ1commence
      00015B E5                     354 	push	hl
      00015C AF                     355 	xor	a, a
      00015D 57                     356 	ld	d,a
      00015E 1E 04                  357 	ld	e,#0x04
      000160 D5                     358 	push	de
      000161 AF                     359 	xor	a, a
      000162 F5                     360 	push	af
      000163 33                     361 	inc	sp
      000164 CDr00r00               362 	call	_printxy
      000167 E8 05                  363 	add	sp, #5
                                    364 ;src/gameboy/awele_gb.c:116: j[0] = j[1] = 0;
      000169 21r01r00               365 	ld	hl, #(_j + 0x0001)
      00016C 36 00                  366 	ld	(hl), #0x00
      00016E 21r00r00               367 	ld	hl, #_j
      000171 36 00                  368 	ld	(hl), #0x00
                                    369 ;src/gameboy/awele_gb.c:117: i = 0;
      000173 AF                     370 	xor	a, a
      000174 F8 07                  371 	ldhl	sp,	#7
      000176 77                     372 	ld	(hl), a
                                    373 ;src/gameboy/awele_gb.c:118: break;
      000177 C3r35r03               374 	jp	00140$
                                    375 ;src/gameboy/awele_gb.c:119: case 2:
      00017A                        376 00111$:
                                    377 ;src/gameboy/awele_gb.c:120: printxy(0,l,FALSE,gJ2ordi);
      00017A 21r00r00               378 	ld	hl, #_gJ2ordi
      00017D E5                     379 	push	hl
      00017E AF                     380 	xor	a, a
      00017F 57                     381 	ld	d,a
      000180 1E 04                  382 	ld	e,#0x04
      000182 D5                     383 	push	de
      000183 AF                     384 	xor	a, a
      000184 F5                     385 	push	af
      000185 33                     386 	inc	sp
      000186 CDr00r00               387 	call	_printxy
      000189 E8 05                  388 	add	sp, #5
                                    389 ;src/gameboy/awele_gb.c:122: j[i]=1;
      00018B 21r01r00               390 	ld	hl, #(_j + 0x0001)
      00018E 36 01                  391 	ld	(hl), #0x01
                                    392 ;src/gameboy/awele_gb.c:123: j[1-i]=0;
      000190 21r00r00               393 	ld	hl, #_j
      000193 36 00                  394 	ld	(hl), #0x00
                                    395 ;src/gameboy/awele_gb.c:124: printxy(0,++l,FALSE,gOptionProfondeur);
      000195 21r00r00               396 	ld	hl, #_gOptionProfondeur
      000198 E5                     397 	push	hl
      000199 AF                     398 	xor	a, a
      00019A 57                     399 	ld	d,a
      00019B 1E 05                  400 	ld	e,#0x05
      00019D D5                     401 	push	de
      00019E AF                     402 	xor	a, a
      00019F F5                     403 	push	af
      0001A0 33                     404 	inc	sp
      0001A1 CDr00r00               405 	call	_printxy
      0001A4 E8 05                  406 	add	sp, #5
                                    407 ;src/gameboy/awele_gb.c:125: i=1;
      0001A6 0E 01                  408 	ld	c, #0x01
                                    409 ;src/gameboy/awele_gb.c:126: do
      0001A8                        410 00118$:
                                    411 ;src/gameboy/awele_gb.c:128: gotogxy(17,l);
      0001A8 C5                     412 	push	bc
      0001A9 11 11 05               413 	ld	de, #0x0511
      0001AC D5                     414 	push	de
      0001AD CDr00r00               415 	call	_gotogxy
      0001B0 E8 02                  416 	add	sp, #2
      0001B2 C1                     417 	pop	bc
                                    418 ;src/gameboy/awele_gb.c:129: wrtchr((char)(i+48));
      0001B3 79                     419 	ld	a, c
      0001B4 C6 30                  420 	add	a, #0x30
      0001B6 C5                     421 	push	bc
      0001B7 F5                     422 	push	af
      0001B8 33                     423 	inc	sp
      0001B9 CDr00r00               424 	call	_wrtchr
      0001BC 33                     425 	inc	sp
      0001BD CDr60r00               426 	call	_getkj
      0001C0 C1                     427 	pop	bc
                                    428 ;src/gameboy/awele_gb.c:132: if(c == KEY_UP && i<6) i++;
      0001C1 7B                     429 	ld	a, e
      0001C2 D6 0B                  430 	sub	a, #0x0b
      0001C4 20 06                  431 	jr	NZ, 00113$
      0001C6 79                     432 	ld	a, c
      0001C7 D6 06                  433 	sub	a, #0x06
      0001C9 30 01                  434 	jr	NC, 00113$
      0001CB 0C                     435 	inc	c
      0001CC                        436 00113$:
                                    437 ;src/gameboy/awele_gb.c:133: if(c == KEY_DOWN && i>1) i--;
      0001CC 7B                     438 	ld	a, e
      0001CD D6 0A                  439 	sub	a, #0x0a
      0001CF 20 06                  440 	jr	NZ, 00119$
      0001D1 3E 01                  441 	ld	a, #0x01
      0001D3 91                     442 	sub	a, c
      0001D4 30 01                  443 	jr	NC, 00119$
      0001D6 0D                     444 	dec	c
      0001D7                        445 00119$:
                                    446 ;src/gameboy/awele_gb.c:134: } while(c != KEY_RETURN);
      0001D7 7B                     447 	ld	a, e
      0001D8 D6 0D                  448 	sub	a, #0x0d
      0001DA 20 CC                  449 	jr	NZ, 00118$
                                    450 ;src/gameboy/awele_gb.c:135: prof[i]=c;
      0001DC 21r00r00               451 	ld	hl, #_prof
      0001DF 06 00                  452 	ld	b, #0x00
      0001E1 09                     453 	add	hl, bc
      0001E2 73                     454 	ld	(hl), e
                                    455 ;src/gameboy/awele_gb.c:136: i=1;
      0001E3 0E 01                  456 	ld	c, #0x01
                                    457 ;src/gameboy/awele_gb.c:138: printxy(0,++l,FALSE,gOptionQuiCommence);
      0001E5 C5                     458 	push	bc
      0001E6 21r00r00               459 	ld	hl, #_gOptionQuiCommence
      0001E9 E5                     460 	push	hl
      0001EA AF                     461 	xor	a, a
      0001EB 57                     462 	ld	d,a
      0001EC 1E 06                  463 	ld	e,#0x06
      0001EE D5                     464 	push	de
      0001EF AF                     465 	xor	a, a
      0001F0 F5                     466 	push	af
      0001F1 33                     467 	inc	sp
      0001F2 CDr00r00               468 	call	_printxy
      0001F5 E8 05                  469 	add	sp, #5
      0001F7 C1                     470 	pop	bc
                                    471 ;src/gameboy/awele_gb.c:139: do
      0001F8                        472 00125$:
                                    473 ;src/gameboy/awele_gb.c:141: gotogxy(15,l);
      0001F8 C5                     474 	push	bc
      0001F9 11 0F 06               475 	ld	de, #0x060f
      0001FC D5                     476 	push	de
      0001FD CDr00r00               477 	call	_gotogxy
      000200 E8 02                  478 	add	sp, #2
      000202 C1                     479 	pop	bc
                                    480 ;src/gameboy/awele_gb.c:142: wrtchr((char)(i+48));
      000203 79                     481 	ld	a, c
      000204 C6 30                  482 	add	a, #0x30
      000206 C5                     483 	push	bc
      000207 F5                     484 	push	af
      000208 33                     485 	inc	sp
      000209 CDr00r00               486 	call	_wrtchr
      00020C 33                     487 	inc	sp
      00020D CDr60r00               488 	call	_getkj
      000210 C1                     489 	pop	bc
                                    490 ;src/gameboy/awele_gb.c:144: if(c == KEY_UP) i=2;
      000211 7B                     491 	ld	a, e
      000212 D6 0B                  492 	sub	a, #0x0b
      000214 20 02                  493 	jr	NZ, 00122$
      000216 0E 02                  494 	ld	c, #0x02
      000218                        495 00122$:
                                    496 ;src/gameboy/awele_gb.c:145: if(c == KEY_DOWN) i=1;
      000218 7B                     497 	ld	a, e
      000219 D6 0A                  498 	sub	a, #0x0a
      00021B 20 02                  499 	jr	NZ, 00126$
      00021D 0E 01                  500 	ld	c, #0x01
      00021F                        501 00126$:
                                    502 ;src/gameboy/awele_gb.c:146: } while(c != KEY_RETURN);
      00021F 7B                     503 	ld	a, e
      000220 D6 0D                  504 	sub	a, #0x0d
      000222 20 D4                  505 	jr	NZ, 00125$
                                    506 ;src/gameboy/awele_gb.c:148: --i;
      000224 79                     507 	ld	a, c
      000225 C6 FF                  508 	add	a, #0xff
      000227 F8 07                  509 	ldhl	sp,	#7
      000229 77                     510 	ld	(hl), a
                                    511 ;src/gameboy/awele_gb.c:149: break;
      00022A C3r35r03               512 	jp	00140$
                                    513 ;src/gameboy/awele_gb.c:151: case 3:
      00022D                        514 00128$:
                                    515 ;src/gameboy/awele_gb.c:152: j[0] = j[1] = 1;
      00022D 21r01r00               516 	ld	hl, #(_j + 0x0001)
      000230 36 01                  517 	ld	(hl), #0x01
      000232 21r00r00               518 	ld	hl, #_j
      000235 36 01                  519 	ld	(hl), #0x01
                                    520 ;src/gameboy/awele_gb.c:153: gotogxy(0,l);
      000237 3E 04                  521 	ld	a, #0x04
      000239 F5                     522 	push	af
      00023A 33                     523 	inc	sp
      00023B AF                     524 	xor	a, a
      00023C F5                     525 	push	af
      00023D 33                     526 	inc	sp
      00023E CDr00r00               527 	call	_gotogxy
      000241 E8 02                  528 	add	sp, #2
                                    529 ;src/gameboy/awele_gb.c:154: printxy(0,l,FALSE,gJ1commence);
      000243 21r00r00               530 	ld	hl, #_gJ1commence
      000246 E5                     531 	push	hl
      000247 AF                     532 	xor	a, a
      000248 57                     533 	ld	d,a
      000249 1E 04                  534 	ld	e,#0x04
      00024B D5                     535 	push	de
      00024C AF                     536 	xor	a, a
      00024D F5                     537 	push	af
      00024E 33                     538 	inc	sp
      00024F CDr00r00               539 	call	_printxy
      000252 E8 05                  540 	add	sp, #5
                                    541 ;src/gameboy/awele_gb.c:155: for( i=0; i<2; i++)
      000254 AF                     542 	xor	a, a
      000255 F8 05                  543 	ldhl	sp,	#5
      000257 22                     544 	ld	(hl+), a
      000258 36 04                  545 	ld	(hl), #0x04
      00025A                        546 00141$:
                                    547 ;src/gameboy/awele_gb.c:158: gotogxy(0,++l);
      00025A F8 06                  548 	ldhl	sp,	#6
      00025C 34                     549 	inc	(hl)
      00025D 7E                     550 	ld	a, (hl)
      00025E F5                     551 	push	af
      00025F 33                     552 	inc	sp
      000260 AF                     553 	xor	a, a
      000261 F5                     554 	push	af
      000262 33                     555 	inc	sp
      000263 CDr00r00               556 	call	_gotogxy
      000266 E8 02                  557 	add	sp, #2
                                    558 ;src/gameboy/awele_gb.c:159: gprintf(gJoueur[i]);
      000268 F8 05                  559 	ldhl	sp,	#5
      00026A 3A                     560 	ld	a, (hl-)
      00026B 2B                     561 	dec	hl
      00026C 77                     562 	ld	(hl), a
      00026D AF                     563 	xor	a, a
      00026E 23                     564 	inc	hl
      00026F 32                     565 	ld	(hl-), a
      000270 7E                     566 	ld	a, (hl)
      000271 F8 00                  567 	ldhl	sp,	#0
      000273 77                     568 	ld	(hl), a
      000274 F8 04                  569 	ldhl	sp,	#4
      000276 7E                     570 	ld	a, (hl)
      000277 F8 01                  571 	ldhl	sp,	#1
      000279 32                     572 	ld	(hl-), a
      00027A CB 26                  573 	sla	(hl)
      00027C 23                     574 	inc	hl
      00027D CB 16                  575 	rl	(hl)
                                    576 ;c
      00027F D1                     577 	pop	de
      000280 D5                     578 	push	de
      000281 21r00r00               579 	ld	hl, #_gJoueur
      000284 19                     580 	add	hl, de
      000285 E5                     581 	push	hl
      000286 7D                     582 	ld	a, l
      000287 F8 05                  583 	ldhl	sp,	#5
      000289 77                     584 	ld	(hl), a
      00028A E1                     585 	pop	hl
      00028B 7C                     586 	ld	a, h
      00028C F8 04                  587 	ldhl	sp,	#4
      00028E 32                     588 	ld	(hl-), a
      00028F 2A                     589 	ld	a, (hl+)
      000290 5F                     590 	ld	e, a
      000291 56                     591 	ld	d, (hl)
      000292 1A                     592 	ld	a, (de)
      000293 2B                     593 	dec	hl
      000294 22                     594 	ld	(hl+), a
      000295 13                     595 	inc	de
      000296 1A                     596 	ld	a, (de)
      000297 32                     597 	ld	(hl-), a
      000298 2A                     598 	ld	a, (hl+)
      000299 66                     599 	ld	h, (hl)
      00029A 6F                     600 	ld	l, a
      00029B E5                     601 	push	hl
      00029C CDr00r00               602 	call	_gprintf
      00029F E8 02                  603 	add	sp, #2
                                    604 ;src/gameboy/awele_gb.c:160: gprintf(gOptionProfondeur);
      0002A1 21r00r00               605 	ld	hl, #_gOptionProfondeur
      0002A4 E5                     606 	push	hl
      0002A5 CDr00r00               607 	call	_gprintf
      0002A8 E8 02                  608 	add	sp, #2
                                    609 ;src/gameboy/awele_gb.c:161: k = 1;
      0002AA F8 07                  610 	ldhl	sp,	#7
      0002AC 36 01                  611 	ld	(hl), #0x01
                                    612 ;src/gameboy/awele_gb.c:162: do
      0002AE                        613 00135$:
                                    614 ;src/gameboy/awele_gb.c:164: gotogxy(18,l);
      0002AE F8 06                  615 	ldhl	sp,	#6
      0002B0 56                     616 	ld	d, (hl)
      0002B1 1E 12                  617 	ld	e,#0x12
      0002B3 D5                     618 	push	de
      0002B4 CDr00r00               619 	call	_gotogxy
      0002B7 E8 02                  620 	add	sp, #2
                                    621 ;src/gameboy/awele_gb.c:165: wrtchr((char)(c+48));((char)(k+48));
      0002B9 F8 02                  622 	ldhl	sp,	#2
      0002BB 7E                     623 	ld	a, (hl)
      0002BC C6 30                  624 	add	a, #0x30
      0002BE F5                     625 	push	af
      0002BF 33                     626 	inc	sp
      0002C0 CDr00r00               627 	call	_wrtchr
      0002C3 33                     628 	inc	sp
                                    629 ;src/gameboy/awele_gb.c:166: c = getkj();
      0002C4 CDr60r00               630 	call	_getkj
      0002C7 F8 02                  631 	ldhl	sp,	#2
      0002C9 73                     632 	ld	(hl), e
                                    633 ;src/gameboy/awele_gb.c:167: if(c == KEY_UP && k<6) k++;
      0002CA 7E                     634 	ld	a, (hl)
      0002CB D6 0B                  635 	sub	a, #0x0b
      0002CD 20 0A                  636 	jr	NZ, 00130$
      0002CF F8 07                  637 	ldhl	sp,	#7
      0002D1 7E                     638 	ld	a, (hl)
      0002D2 EE 80                  639 	xor	a, #0x80
      0002D4 D6 86                  640 	sub	a, #0x86
      0002D6 30 01                  641 	jr	NC, 00130$
      0002D8 34                     642 	inc	(hl)
      0002D9                        643 00130$:
                                    644 ;src/gameboy/awele_gb.c:168: if(c == KEY_DOWN && k>1) k--;
      0002D9 F8 02                  645 	ldhl	sp,	#2
      0002DB 7E                     646 	ld	a, (hl)
      0002DC D6 0A                  647 	sub	a, #0x0a
      0002DE 20 1C                  648 	jr	NZ, 00136$
      0002E0 F8 07                  649 	ldhl	sp,	#7
      0002E2 5E                     650 	ld	e, (hl)
      0002E3 3E 01                  651 	ld	a,#0x01
      0002E5 57                     652 	ld	d,a
      0002E6 96                     653 	sub	a, (hl)
      0002E7 CB 7B                  654 	bit	7, e
      0002E9 28 07                  655 	jr	Z, 00313$
      0002EB CB 7A                  656 	bit	7, d
      0002ED 20 08                  657 	jr	NZ, 00314$
      0002EF BF                     658 	cp	a, a
      0002F0 18 05                  659 	jr	00314$
      0002F2                        660 00313$:
      0002F2 CB 7A                  661 	bit	7, d
      0002F4 28 01                  662 	jr	Z, 00314$
      0002F6 37                     663 	scf
      0002F7                        664 00314$:
      0002F7 30 03                  665 	jr	NC, 00136$
      0002F9 F8 07                  666 	ldhl	sp,	#7
      0002FB 35                     667 	dec	(hl)
      0002FC                        668 00136$:
                                    669 ;src/gameboy/awele_gb.c:169: } while(c != KEY_RETURN);
      0002FC F8 02                  670 	ldhl	sp,	#2
      0002FE 7E                     671 	ld	a, (hl)
      0002FF D6 0D                  672 	sub	a, #0x0d
      000301 20 AB                  673 	jr	NZ, 00135$
                                    674 ;src/gameboy/awele_gb.c:170: prof[i]=k;
                                    675 ;c
      000303 11r00r00               676 	ld	de, #_prof
      000306 F8 05                  677 	ldhl	sp,	#5
      000308 6E                     678 	ld	l, (hl)
      000309 26 00                  679 	ld	h, #0x00
      00030B 19                     680 	add	hl, de
      00030C E5                     681 	push	hl
      00030D 7D                     682 	ld	a, l
      00030E F8 05                  683 	ldhl	sp,	#5
      000310 77                     684 	ld	(hl), a
      000311 E1                     685 	pop	hl
      000312 7C                     686 	ld	a, h
      000313 F8 04                  687 	ldhl	sp,	#4
      000315 32                     688 	ld	(hl-), a
      000316 2A                     689 	ld	a, (hl+)
      000317 5F                     690 	ld	e, a
      000318 56                     691 	ld	d, (hl)
      000319 F8 07                  692 	ldhl	sp,	#7
      00031B 7E                     693 	ld	a, (hl)
      00031C 12                     694 	ld	(de), a
                                    695 ;src/gameboy/awele_gb.c:155: for( i=0; i<2; i++)
      00031D 2B                     696 	dec	hl
      00031E 2B                     697 	dec	hl
      00031F 34                     698 	inc	(hl)
      000320 7E                     699 	ld	a, (hl)
      000321 D6 02                  700 	sub	a, #0x02
      000323 DAr5Ar02               701 	jp	C, 00141$
                                    702 ;src/gameboy/awele_gb.c:172: i=0;
      000326 AF                     703 	xor	a, a
      000327 23                     704 	inc	hl
      000328 23                     705 	inc	hl
      000329 77                     706 	ld	(hl), a
                                    707 ;src/gameboy/awele_gb.c:173: break;
      00032A 18 09                  708 	jr	00140$
                                    709 ;src/gameboy/awele_gb.c:174: default:
      00032C                        710 00139$:
                                    711 ;src/gameboy/awele_gb.c:178: exit(5);
      00032C 21 05 00               712 	ld	hl, #0x0005
      00032F E5                     713 	push	hl
      000330 CDr00r00               714 	call	_exit
      000333 E8 02                  715 	add	sp, #2
                                    716 ;src/gameboy/awele_gb.c:179: }
      000335                        717 00140$:
                                    718 ;src/gameboy/awele_gb.c:182: clrscr();
      000335 CDrE4r05               719 	call	_clrscr
                                    720 ;src/gameboy/awele_gb.c:183: gotogxy(0,0);gprintf(gPositionsEvaluees);
      000338 AF                     721 	xor	a, a
      000339 F5                     722 	push	af
      00033A 33                     723 	inc	sp
      00033B AF                     724 	xor	a, a
      00033C F5                     725 	push	af
      00033D 33                     726 	inc	sp
      00033E CDr00r00               727 	call	_gotogxy
      000341 E8 02                  728 	add	sp, #2
      000343 21r00r00               729 	ld	hl, #_gPositionsEvaluees
      000346 E5                     730 	push	hl
      000347 CDr00r00               731 	call	_gprintf
      00034A E8 02                  732 	add	sp, #2
                                    733 ;src/gameboy/awele_gb.c:185: return(i);
      00034C F8 07                  734 	ldhl	sp,	#7
      00034E 5E                     735 	ld	e, (hl)
                                    736 ;src/gameboy/awele_gb.c:187: }
      00034F E8 08                  737 	add	sp, #8
      000351 C9                     738 	ret
                                    739 ;src/gameboy/awele_gb.c:189: void affPlateau(UBYTE *p)
                                    740 ;	---------------------------------
                                    741 ; Function affPlateau
                                    742 ; ---------------------------------
      000352                        743 _affPlateau::
                                    744 ;src/gameboy/awele_gb.c:192: gotogxy(0,1);
      000352 3E 01                  745 	ld	a, #0x01
      000354 F5                     746 	push	af
      000355 33                     747 	inc	sp
      000356 AF                     748 	xor	a, a
      000357 F5                     749 	push	af
      000358 33                     750 	inc	sp
      000359 CDr00r00               751 	call	_gotogxy
      00035C E8 02                  752 	add	sp, #2
                                    753 ;src/gameboy/awele_gb.c:193: for( i=2*NCASES; i>NCASES; i--)
      00035E 01 10 00               754 	ld	bc, #0x0010
      000361                        755 00121$:
                                    756 ;src/gameboy/awele_gb.c:195: gotogxy(2*(2*NCASES-i+1),1);
      000361 59                     757 	ld	e, c
      000362 3E 11                  758 	ld	a, #0x11
      000364 93                     759 	sub	a, e
      000365 87                     760 	add	a, a
      000366 C5                     761 	push	bc
      000367 26 01                  762 	ld	h, #0x01
      000369 E5                     763 	push	hl
      00036A 33                     764 	inc	sp
      00036B F5                     765 	push	af
      00036C 33                     766 	inc	sp
      00036D CDr00r00               767 	call	_gotogxy
      000370 E8 02                  768 	add	sp, #2
      000372 C1                     769 	pop	bc
                                    770 ;src/gameboy/awele_gb.c:196: if(i%2)  color(BLACK, WHITE, SOLID);
      000373 C5                     771 	push	bc
      000374 21 02 00               772 	ld	hl, #0x0002
      000377 E5                     773 	push	hl
      000378 C5                     774 	push	bc
      000379 CDr00r00               775 	call	__modsint
      00037C E8 04                  776 	add	sp, #4
      00037E C1                     777 	pop	bc
      00037F 7A                     778 	ld	a, d
      000380 B3                     779 	or	a, e
      000381 28 11                  780 	jr	Z, 00102$
      000383 C5                     781 	push	bc
      000384 AF                     782 	xor	a, a
      000385 F5                     783 	push	af
      000386 33                     784 	inc	sp
      000387 AF                     785 	xor	a, a
      000388 57                     786 	ld	d,a
      000389 1E 03                  787 	ld	e,#0x03
      00038B D5                     788 	push	de
      00038C CDr00r00               789 	call	_color
      00038F E8 03                  790 	add	sp, #3
      000391 C1                     791 	pop	bc
      000392 18 0F                  792 	jr	00103$
      000394                        793 00102$:
                                    794 ;src/gameboy/awele_gb.c:197: else     color(WHITE, DKGREY, SOLID);
      000394 C5                     795 	push	bc
      000395 AF                     796 	xor	a, a
      000396 57                     797 	ld	d,a
      000397 1E 02                  798 	ld	e,#0x02
      000399 D5                     799 	push	de
      00039A AF                     800 	xor	a, a
      00039B F5                     801 	push	af
      00039C 33                     802 	inc	sp
      00039D CDr00r00               803 	call	_color
      0003A0 E8 03                  804 	add	sp, #3
      0003A2 C1                     805 	pop	bc
      0003A3                        806 00103$:
                                    807 ;src/gameboy/awele_gb.c:199: gprintf("%d", i);
      0003A3 C5                     808 	push	bc
      0003A4 C5                     809 	push	bc
      0003A5 21r80r05               810 	ld	hl, #___str_0
      0003A8 E5                     811 	push	hl
      0003A9 CDr00r00               812 	call	_gprintf
      0003AC E8 04                  813 	add	sp, #4
      0003AE C1                     814 	pop	bc
                                    815 ;src/gameboy/awele_gb.c:193: for( i=2*NCASES; i>NCASES; i--)
      0003AF 0B                     816 	dec	bc
      0003B0 58                     817 	ld	e, b
      0003B1 16 00                  818 	ld	d, #0x00
      0003B3 3E 08                  819 	ld	a, #0x08
      0003B5 B9                     820 	cp	a, c
      0003B6 3E 00                  821 	ld	a, #0x00
      0003B8 98                     822 	sbc	a, b
      0003B9 CB 7B                  823 	bit	7, e
      0003BB 28 07                  824 	jr	Z, 00200$
      0003BD CB 7A                  825 	bit	7, d
      0003BF 20 08                  826 	jr	NZ, 00201$
      0003C1 BF                     827 	cp	a, a
      0003C2 18 05                  828 	jr	00201$
      0003C4                        829 00200$:
      0003C4 CB 7A                  830 	bit	7, d
      0003C6 28 01                  831 	jr	Z, 00201$
      0003C8 37                     832 	scf
      0003C9                        833 00201$:
      0003C9 38 96                  834 	jr	C, 00121$
                                    835 ;src/gameboy/awele_gb.c:202: for( i=2*NCASES; i>NCASES; i--)
      0003CB 01 10 00               836 	ld	bc, #0x0010
      0003CE                        837 00123$:
                                    838 ;src/gameboy/awele_gb.c:204: gotogxy(2*(2*NCASES-i+1),3);//+i%2);
      0003CE 59                     839 	ld	e, c
      0003CF 3E 11                  840 	ld	a, #0x11
      0003D1 93                     841 	sub	a, e
      0003D2 87                     842 	add	a, a
      0003D3 C5                     843 	push	bc
      0003D4 26 03                  844 	ld	h, #0x03
      0003D6 E5                     845 	push	hl
      0003D7 33                     846 	inc	sp
      0003D8 F5                     847 	push	af
      0003D9 33                     848 	inc	sp
      0003DA CDr00r00               849 	call	_gotogxy
      0003DD E8 02                  850 	add	sp, #2
      0003DF C1                     851 	pop	bc
                                    852 ;src/gameboy/awele_gb.c:205: if(i%2)  color(BLACK, WHITE, SOLID);
      0003E0 C5                     853 	push	bc
      0003E1 21 02 00               854 	ld	hl, #0x0002
      0003E4 E5                     855 	push	hl
      0003E5 C5                     856 	push	bc
      0003E6 CDr00r00               857 	call	__modsint
      0003E9 E8 04                  858 	add	sp, #4
      0003EB C1                     859 	pop	bc
      0003EC 7A                     860 	ld	a, d
      0003ED B3                     861 	or	a, e
      0003EE 28 11                  862 	jr	Z, 00106$
      0003F0 C5                     863 	push	bc
      0003F1 AF                     864 	xor	a, a
      0003F2 F5                     865 	push	af
      0003F3 33                     866 	inc	sp
      0003F4 AF                     867 	xor	a, a
      0003F5 57                     868 	ld	d,a
      0003F6 1E 03                  869 	ld	e,#0x03
      0003F8 D5                     870 	push	de
      0003F9 CDr00r00               871 	call	_color
      0003FC E8 03                  872 	add	sp, #3
      0003FE C1                     873 	pop	bc
      0003FF 18 0F                  874 	jr	00107$
      000401                        875 00106$:
                                    876 ;src/gameboy/awele_gb.c:206: else     color(WHITE, DKGREY, SOLID);
      000401 C5                     877 	push	bc
      000402 AF                     878 	xor	a, a
      000403 57                     879 	ld	d,a
      000404 1E 02                  880 	ld	e,#0x02
      000406 D5                     881 	push	de
      000407 AF                     882 	xor	a, a
      000408 F5                     883 	push	af
      000409 33                     884 	inc	sp
      00040A CDr00r00               885 	call	_color
      00040D E8 03                  886 	add	sp, #3
      00040F C1                     887 	pop	bc
      000410                        888 00107$:
                                    889 ;src/gameboy/awele_gb.c:207: gprintf("%d", p[i]);
      000410 F8 02                  890 	ldhl	sp,	#2
      000412 2A                     891 	ld	a, (hl+)
      000413 66                     892 	ld	h, (hl)
      000414 6F                     893 	ld	l, a
      000415 09                     894 	add	hl, bc
      000416 5D                     895 	ld	e, l
      000417 54                     896 	ld	d, h
      000418 1A                     897 	ld	a, (de)
      000419 6F                     898 	ld	l, a
      00041A 26 00                  899 	ld	h, #0x00
      00041C C5                     900 	push	bc
      00041D D5                     901 	push	de
      00041E E5                     902 	push	hl
      00041F 21r80r05               903 	ld	hl, #___str_0
      000422 E5                     904 	push	hl
      000423 CDr00r00               905 	call	_gprintf
      000426 E8 04                  906 	add	sp, #4
      000428 D1                     907 	pop	de
      000429 C1                     908 	pop	bc
                                    909 ;src/gameboy/awele_gb.c:208: if(p[i]<10) wrtchr(' ');
      00042A 1A                     910 	ld	a, (de)
      00042B D6 0A                  911 	sub	a, #0x0a
      00042D 30 0A                  912 	jr	NC, 00124$
      00042F C5                     913 	push	bc
      000430 3E 20                  914 	ld	a, #0x20
      000432 F5                     915 	push	af
      000433 33                     916 	inc	sp
      000434 CDr00r00               917 	call	_wrtchr
      000437 33                     918 	inc	sp
      000438 C1                     919 	pop	bc
      000439                        920 00124$:
                                    921 ;src/gameboy/awele_gb.c:202: for( i=2*NCASES; i>NCASES; i--)
      000439 0B                     922 	dec	bc
      00043A 58                     923 	ld	e, b
      00043B 16 00                  924 	ld	d, #0x00
      00043D 3E 08                  925 	ld	a, #0x08
      00043F B9                     926 	cp	a, c
      000440 3E 00                  927 	ld	a, #0x00
      000442 98                     928 	sbc	a, b
      000443 CB 7B                  929 	bit	7, e
      000445 28 07                  930 	jr	Z, 00202$
      000447 CB 7A                  931 	bit	7, d
      000449 20 08                  932 	jr	NZ, 00203$
      00044B BF                     933 	cp	a, a
      00044C 18 05                  934 	jr	00203$
      00044E                        935 00202$:
      00044E CB 7A                  936 	bit	7, d
      000450 28 01                  937 	jr	Z, 00203$
      000452 37                     938 	scf
      000453                        939 00203$:
      000453 DArCEr03               940 	jp	C, 00123$
                                    941 ;src/gameboy/awele_gb.c:212: color(WHITE, DKGREY, SOLID);
      000456 AF                     942 	xor	a, a
      000457 57                     943 	ld	d,a
      000458 1E 02                  944 	ld	e,#0x02
      00045A D5                     945 	push	de
      00045B AF                     946 	xor	a, a
      00045C F5                     947 	push	af
      00045D 33                     948 	inc	sp
      00045E CDr00r00               949 	call	_color
      000461 E8 03                  950 	add	sp, #3
                                    951 ;src/gameboy/awele_gb.c:213: gotogxy(0,4);
      000463 3E 04                  952 	ld	a, #0x04
      000465 F5                     953 	push	af
      000466 33                     954 	inc	sp
      000467 AF                     955 	xor	a, a
      000468 F5                     956 	push	af
      000469 33                     957 	inc	sp
      00046A CDr00r00               958 	call	_gotogxy
      00046D E8 02                  959 	add	sp, #2
                                    960 ;src/gameboy/awele_gb.c:214: gprintf("%d",p[KALAH2]);
                                    961 ;c
      00046F F8 02                  962 	ldhl	sp,#2
      000471 2A                     963 	ld	a, (hl+)
      000472 5F                     964 	ld	e, a
      000473 56                     965 	ld	d, (hl)
      000474 21 11 00               966 	ld	hl, #0x0011
      000477 19                     967 	add	hl, de
      000478 4D                     968 	ld	c, l
      000479 44                     969 	ld	b, h
      00047A 0A                     970 	ld	a, (bc)
      00047B 4F                     971 	ld	c, a
      00047C 06 00                  972 	ld	b, #0x00
      00047E C5                     973 	push	bc
      00047F 21r80r05               974 	ld	hl, #___str_0
      000482 E5                     975 	push	hl
      000483 CDr00r00               976 	call	_gprintf
      000486 E8 04                  977 	add	sp, #4
                                    978 ;src/gameboy/awele_gb.c:216: gotogxy(2*NCASES+2,4);
      000488 11 12 04               979 	ld	de, #0x0412
      00048B D5                     980 	push	de
      00048C CDr00r00               981 	call	_gotogxy
      00048F E8 02                  982 	add	sp, #2
                                    983 ;src/gameboy/awele_gb.c:217: gprintf("%d", p[KALAH1]);
                                    984 ;c
      000491 F8 02                  985 	ldhl	sp,#2
      000493 2A                     986 	ld	a, (hl+)
      000494 5F                     987 	ld	e, a
      000495 56                     988 	ld	d, (hl)
      000496 21 08 00               989 	ld	hl, #0x0008
      000499 19                     990 	add	hl, de
      00049A 4D                     991 	ld	c, l
      00049B 44                     992 	ld	b, h
      00049C 0A                     993 	ld	a, (bc)
      00049D 4F                     994 	ld	c, a
      00049E 06 00                  995 	ld	b, #0x00
      0004A0 C5                     996 	push	bc
      0004A1 21r80r05               997 	ld	hl, #___str_0
      0004A4 E5                     998 	push	hl
      0004A5 CDr00r00               999 	call	_gprintf
      0004A8 E8 04                 1000 	add	sp, #4
                                   1001 ;src/gameboy/awele_gb.c:219: for( i=0; i<NCASES; i++)
      0004AA 01 00 00              1002 	ld	bc, #0x0000
      0004AD                       1003 00125$:
                                   1004 ;src/gameboy/awele_gb.c:221: gotogxy(2*i+2,5);//+i%2);
      0004AD 79                    1005 	ld	a, c
      0004AE 87                    1006 	add	a, a
      0004AF C6 02                 1007 	add	a, #0x02
      0004B1 C5                    1008 	push	bc
      0004B2 26 05                 1009 	ld	h, #0x05
      0004B4 E5                    1010 	push	hl
      0004B5 33                    1011 	inc	sp
      0004B6 F5                    1012 	push	af
      0004B7 33                    1013 	inc	sp
      0004B8 CDr00r00              1014 	call	_gotogxy
      0004BB E8 02                 1015 	add	sp, #2
      0004BD C1                    1016 	pop	bc
                                   1017 ;src/gameboy/awele_gb.c:222: if(i%2)     color(WHITE, DKGREY, SOLID);
      0004BE C5                    1018 	push	bc
      0004BF 21 02 00              1019 	ld	hl, #0x0002
      0004C2 E5                    1020 	push	hl
      0004C3 C5                    1021 	push	bc
      0004C4 CDr00r00              1022 	call	__modsint
      0004C7 E8 04                 1023 	add	sp, #4
      0004C9 C1                    1024 	pop	bc
      0004CA 7A                    1025 	ld	a, d
      0004CB B3                    1026 	or	a, e
      0004CC 28 11                 1027 	jr	Z, 00112$
      0004CE C5                    1028 	push	bc
      0004CF AF                    1029 	xor	a, a
      0004D0 57                    1030 	ld	d,a
      0004D1 1E 02                 1031 	ld	e,#0x02
      0004D3 D5                    1032 	push	de
      0004D4 AF                    1033 	xor	a, a
      0004D5 F5                    1034 	push	af
      0004D6 33                    1035 	inc	sp
      0004D7 CDr00r00              1036 	call	_color
      0004DA E8 03                 1037 	add	sp, #3
      0004DC C1                    1038 	pop	bc
      0004DD 18 0F                 1039 	jr	00113$
      0004DF                       1040 00112$:
                                   1041 ;src/gameboy/awele_gb.c:223: else     color(BLACK, WHITE, SOLID);
      0004DF C5                    1042 	push	bc
      0004E0 AF                    1043 	xor	a, a
      0004E1 F5                    1044 	push	af
      0004E2 33                    1045 	inc	sp
      0004E3 AF                    1046 	xor	a, a
      0004E4 57                    1047 	ld	d,a
      0004E5 1E 03                 1048 	ld	e,#0x03
      0004E7 D5                    1049 	push	de
      0004E8 CDr00r00              1050 	call	_color
      0004EB E8 03                 1051 	add	sp, #3
      0004ED C1                    1052 	pop	bc
      0004EE                       1053 00113$:
                                   1054 ;src/gameboy/awele_gb.c:225: gprintf("%d", p[i]);
      0004EE F8 02                 1055 	ldhl	sp,	#2
      0004F0 2A                    1056 	ld	a, (hl+)
      0004F1 66                    1057 	ld	h, (hl)
      0004F2 6F                    1058 	ld	l, a
      0004F3 09                    1059 	add	hl, bc
      0004F4 5D                    1060 	ld	e, l
      0004F5 54                    1061 	ld	d, h
      0004F6 1A                    1062 	ld	a, (de)
      0004F7 6F                    1063 	ld	l, a
      0004F8 26 00                 1064 	ld	h, #0x00
      0004FA C5                    1065 	push	bc
      0004FB D5                    1066 	push	de
      0004FC E5                    1067 	push	hl
      0004FD 21r80r05              1068 	ld	hl, #___str_0
      000500 E5                    1069 	push	hl
      000501 CDr00r00              1070 	call	_gprintf
      000504 E8 04                 1071 	add	sp, #4
      000506 D1                    1072 	pop	de
      000507 C1                    1073 	pop	bc
                                   1074 ;src/gameboy/awele_gb.c:226: if(p[i]<10) wrtchr(' ');
      000508 1A                    1075 	ld	a, (de)
      000509 D6 0A                 1076 	sub	a, #0x0a
      00050B 30 0A                 1077 	jr	NC, 00126$
      00050D C5                    1078 	push	bc
      00050E 3E 20                 1079 	ld	a, #0x20
      000510 F5                    1080 	push	af
      000511 33                    1081 	inc	sp
      000512 CDr00r00              1082 	call	_wrtchr
      000515 33                    1083 	inc	sp
      000516 C1                    1084 	pop	bc
      000517                       1085 00126$:
                                   1086 ;src/gameboy/awele_gb.c:219: for( i=0; i<NCASES; i++)
      000517 03                    1087 	inc	bc
      000518 79                    1088 	ld	a, c
      000519 D6 08                 1089 	sub	a, #0x08
      00051B 78                    1090 	ld	a, b
      00051C 17                    1091 	rla
      00051D 3F                    1092 	ccf
      00051E 1F                    1093 	rra
      00051F DE 80                 1094 	sbc	a, #0x80
      000521 38 8A                 1095 	jr	C, 00125$
                                   1096 ;src/gameboy/awele_gb.c:229: for( i=0; i<NCASES; i++)
      000523 01 00 00              1097 	ld	bc, #0x0000
      000526                       1098 00127$:
                                   1099 ;src/gameboy/awele_gb.c:231: gotogxy(2*i+2,7);
      000526 79                    1100 	ld	a, c
      000527 87                    1101 	add	a, a
      000528 C6 02                 1102 	add	a, #0x02
      00052A C5                    1103 	push	bc
      00052B 26 07                 1104 	ld	h, #0x07
      00052D E5                    1105 	push	hl
      00052E 33                    1106 	inc	sp
      00052F F5                    1107 	push	af
      000530 33                    1108 	inc	sp
      000531 CDr00r00              1109 	call	_gotogxy
      000534 E8 02                 1110 	add	sp, #2
      000536 C1                    1111 	pop	bc
                                   1112 ;src/gameboy/awele_gb.c:232: if(i%2)     color(WHITE, DKGREY, SOLID);
      000537 C5                    1113 	push	bc
      000538 21 02 00              1114 	ld	hl, #0x0002
      00053B E5                    1115 	push	hl
      00053C C5                    1116 	push	bc
      00053D CDr00r00              1117 	call	__modsint
      000540 E8 04                 1118 	add	sp, #4
      000542 C1                    1119 	pop	bc
      000543 7A                    1120 	ld	a, d
      000544 B3                    1121 	or	a, e
      000545 28 11                 1122 	jr	Z, 00118$
      000547 C5                    1123 	push	bc
      000548 AF                    1124 	xor	a, a
      000549 57                    1125 	ld	d,a
      00054A 1E 02                 1126 	ld	e,#0x02
      00054C D5                    1127 	push	de
      00054D AF                    1128 	xor	a, a
      00054E F5                    1129 	push	af
      00054F 33                    1130 	inc	sp
      000550 CDr00r00              1131 	call	_color
      000553 E8 03                 1132 	add	sp, #3
      000555 C1                    1133 	pop	bc
      000556 18 0F                 1134 	jr	00119$
      000558                       1135 00118$:
                                   1136 ;src/gameboy/awele_gb.c:233: else     color(BLACK, WHITE, SOLID);
      000558 C5                    1137 	push	bc
      000559 AF                    1138 	xor	a, a
      00055A F5                    1139 	push	af
      00055B 33                    1140 	inc	sp
      00055C AF                    1141 	xor	a, a
      00055D 57                    1142 	ld	d,a
      00055E 1E 03                 1143 	ld	e,#0x03
      000560 D5                    1144 	push	de
      000561 CDr00r00              1145 	call	_color
      000564 E8 03                 1146 	add	sp, #3
      000566 C1                    1147 	pop	bc
      000567                       1148 00119$:
                                   1149 ;src/gameboy/awele_gb.c:234: gprintf("%d", i);
      000567 C5                    1150 	push	bc
      000568 C5                    1151 	push	bc
      000569 21r80r05              1152 	ld	hl, #___str_0
      00056C E5                    1153 	push	hl
      00056D CDr00r00              1154 	call	_gprintf
      000570 E8 04                 1155 	add	sp, #4
      000572 C1                    1156 	pop	bc
                                   1157 ;src/gameboy/awele_gb.c:229: for( i=0; i<NCASES; i++)
      000573 03                    1158 	inc	bc
      000574 79                    1159 	ld	a, c
      000575 D6 08                 1160 	sub	a, #0x08
      000577 78                    1161 	ld	a, b
      000578 17                    1162 	rla
      000579 3F                    1163 	ccf
      00057A 1F                    1164 	rra
      00057B DE 80                 1165 	sbc	a, #0x80
      00057D 38 A7                 1166 	jr	C, 00127$
                                   1167 ;src/gameboy/awele_gb.c:236: }
      00057F C9                    1168 	ret
      000580                       1169 ___str_0:
      000580 25 64                 1170 	.ascii "%d"
      000582 00                    1171 	.db 0x00
                                   1172 ;src/gameboy/awele_gb.c:238: void effaceLigne(UINT8 l)
                                   1173 ;	---------------------------------
                                   1174 ; Function effaceLigne
                                   1175 ; ---------------------------------
      000583                       1176 _effaceLigne::
                                   1177 ;src/gameboy/awele_gb.c:241: color(BLACK, WHITE, SOLID);
      000583 AF                    1178 	xor	a, a
      000584 F5                    1179 	push	af
      000585 33                    1180 	inc	sp
      000586 AF                    1181 	xor	a, a
      000587 57                    1182 	ld	d,a
      000588 1E 03                 1183 	ld	e,#0x03
      00058A D5                    1184 	push	de
      00058B CDr00r00              1185 	call	_color
      00058E E8 03                 1186 	add	sp, #3
                                   1187 ;src/gameboy/awele_gb.c:242: gotogxy(0,l);
      000590 F8 02                 1188 	ldhl	sp,	#2
      000592 7E                    1189 	ld	a, (hl)
      000593 F5                    1190 	push	af
      000594 33                    1191 	inc	sp
      000595 AF                    1192 	xor	a, a
      000596 F5                    1193 	push	af
      000597 33                    1194 	inc	sp
      000598 CDr00r00              1195 	call	_gotogxy
      00059B E8 02                 1196 	add	sp, #2
                                   1197 ;src/gameboy/awele_gb.c:243: for(i=0;i<20;i++) wrtchr(' ');
      00059D 0E 00                 1198 	ld	c, #0x00
      00059F                       1199 00102$:
      00059F C5                    1200 	push	bc
      0005A0 3E 20                 1201 	ld	a, #0x20
      0005A2 F5                    1202 	push	af
      0005A3 33                    1203 	inc	sp
      0005A4 CDr00r00              1204 	call	_wrtchr
      0005A7 33                    1205 	inc	sp
      0005A8 C1                    1206 	pop	bc
      0005A9 0C                    1207 	inc	c
      0005AA 79                    1208 	ld	a, c
      0005AB D6 14                 1209 	sub	a, #0x14
      0005AD 38 F0                 1210 	jr	C, 00102$
                                   1211 ;src/gameboy/awele_gb.c:244: }
      0005AF C9                    1212 	ret
                                   1213 ;src/gameboy/awele_gb.c:246: void effaceChr(UINT8 l, UINT16 n)
                                   1214 ;	---------------------------------
                                   1215 ; Function effaceChr
                                   1216 ; ---------------------------------
      0005B0                       1217 _effaceChr::
                                   1218 ;src/gameboy/awele_gb.c:249: color(BLACK, WHITE, SOLID);
      0005B0 AF                    1219 	xor	a, a
      0005B1 F5                    1220 	push	af
      0005B2 33                    1221 	inc	sp
      0005B3 AF                    1222 	xor	a, a
      0005B4 57                    1223 	ld	d,a
      0005B5 1E 03                 1224 	ld	e,#0x03
      0005B7 D5                    1225 	push	de
      0005B8 CDr00r00              1226 	call	_color
      0005BB E8 03                 1227 	add	sp, #3
                                   1228 ;src/gameboy/awele_gb.c:250: gotogxy(0,l);
      0005BD F8 02                 1229 	ldhl	sp,	#2
      0005BF 7E                    1230 	ld	a, (hl)
      0005C0 F5                    1231 	push	af
      0005C1 33                    1232 	inc	sp
      0005C2 AF                    1233 	xor	a, a
      0005C3 F5                    1234 	push	af
      0005C4 33                    1235 	inc	sp
      0005C5 CDr00r00              1236 	call	_gotogxy
      0005C8 E8 02                 1237 	add	sp, #2
                                   1238 ;src/gameboy/awele_gb.c:251: for(i=0;i<n;i++) wrtchr(' ');
      0005CA 01 00 00              1239 	ld	bc, #0x0000
      0005CD                       1240 00103$:
      0005CD 59                    1241 	ld	e, c
      0005CE 50                    1242 	ld	d, b
      0005CF F8 03                 1243 	ldhl	sp,	#3
      0005D1 7B                    1244 	ld	a, e
      0005D2 96                    1245 	sub	a, (hl)
      0005D3 23                    1246 	inc	hl
      0005D4 7A                    1247 	ld	a, d
      0005D5 9E                    1248 	sbc	a, (hl)
      0005D6 D0                    1249 	ret	NC
      0005D7 C5                    1250 	push	bc
      0005D8 3E 20                 1251 	ld	a, #0x20
      0005DA F5                    1252 	push	af
      0005DB 33                    1253 	inc	sp
      0005DC CDr00r00              1254 	call	_wrtchr
      0005DF 33                    1255 	inc	sp
      0005E0 C1                    1256 	pop	bc
      0005E1 03                    1257 	inc	bc
                                   1258 ;src/gameboy/awele_gb.c:252: }
      0005E2 18 E9                 1259 	jr	00103$
                                   1260 ;src/gameboy/awele_gb.c:254: void clrscr()
                                   1261 ;	---------------------------------
                                   1262 ; Function clrscr
                                   1263 ; ---------------------------------
      0005E4                       1264 _clrscr::
                                   1265 ;src/gameboy/awele_gb.c:256: effaceChr(0,360);
      0005E4 21 68 01              1266 	ld	hl, #0x0168
      0005E7 E5                    1267 	push	hl
      0005E8 AF                    1268 	xor	a, a
      0005E9 F5                    1269 	push	af
      0005EA 33                    1270 	inc	sp
      0005EB CDrB0r05              1271 	call	_effaceChr
      0005EE E8 03                 1272 	add	sp, #3
                                   1273 ;src/gameboy/awele_gb.c:257: }
      0005F0 C9                    1274 	ret
                                   1275 ;src/gameboy/awele_gb.c:259: void afficherResultats(UBYTE k1, UBYTE k2)
                                   1276 ;	---------------------------------
                                   1277 ; Function afficherResultats
                                   1278 ; ---------------------------------
      0005F1                       1279 _afficherResultats::
                                   1280 ;src/gameboy/awele_gb.c:262: gotogxy(0,12);
      0005F1 3E 0C                 1281 	ld	a, #0x0c
      0005F3 F5                    1282 	push	af
      0005F4 33                    1283 	inc	sp
      0005F5 AF                    1284 	xor	a, a
      0005F6 F5                    1285 	push	af
      0005F7 33                    1286 	inc	sp
      0005F8 CDr00r00              1287 	call	_gotogxy
      0005FB E8 02                 1288 	add	sp, #2
                                   1289 ;src/gameboy/awele_gb.c:263: color(WHITE, DKGREY, SOLID);
      0005FD AF                    1290 	xor	a, a
      0005FE 57                    1291 	ld	d,a
      0005FF 1E 02                 1292 	ld	e,#0x02
      000601 D5                    1293 	push	de
      000602 AF                    1294 	xor	a, a
      000603 F5                    1295 	push	af
      000604 33                    1296 	inc	sp
      000605 CDr00r00              1297 	call	_color
      000608 E8 03                 1298 	add	sp, #3
                                   1299 ;src/gameboy/awele_gb.c:265: if( k1>k2 )
      00060A F8 03                 1300 	ldhl	sp,	#3
      00060C 3A                    1301 	ld	a, (hl-)
      00060D 96                    1302 	sub	a, (hl)
      00060E 30 17                 1303 	jr	NC, 00105$
                                   1304 ;src/gameboy/awele_gb.c:267: gprintf(gJoueur[0]);
      000610 21r00r00              1305 	ld	hl, #_gJoueur
      000613 2A                    1306 	ld	a, (hl+)
      000614 4F                    1307 	ld	c, a
      000615 46                    1308 	ld	b, (hl)
      000616 C5                    1309 	push	bc
      000617 CDr00r00              1310 	call	_gprintf
      00061A E8 02                 1311 	add	sp, #2
                                   1312 ;src/gameboy/awele_gb.c:268: gprintf(gVainqueur);
      00061C 21r00r00              1313 	ld	hl, #_gVainqueur
      00061F E5                    1314 	push	hl
      000620 CDr00r00              1315 	call	_gprintf
      000623 E8 02                 1316 	add	sp, #2
      000625 18 26                 1317 	jr	00106$
      000627                       1318 00105$:
                                   1319 ;src/gameboy/awele_gb.c:270: else if( k1==k2 )
      000627 F8 02                 1320 	ldhl	sp,	#2
      000629 2A                    1321 	ld	a, (hl+)
      00062A 96                    1322 	sub	a, (hl)
      00062B 20 0B                 1323 	jr	NZ, 00102$
                                   1324 ;src/gameboy/awele_gb.c:271: gprintf(gEgalite);
      00062D 21r00r00              1325 	ld	hl, #_gEgalite
      000630 E5                    1326 	push	hl
      000631 CDr00r00              1327 	call	_gprintf
      000634 E8 02                 1328 	add	sp, #2
      000636 18 15                 1329 	jr	00106$
      000638                       1330 00102$:
                                   1331 ;src/gameboy/awele_gb.c:274: gprintf(gJoueur[1]);
      000638 21r02r00              1332 	ld	hl, #(_gJoueur + 0x0002)
      00063B 2A                    1333 	ld	a, (hl+)
      00063C 4F                    1334 	ld	c, a
      00063D 46                    1335 	ld	b, (hl)
      00063E C5                    1336 	push	bc
      00063F CDr00r00              1337 	call	_gprintf
      000642 E8 02                 1338 	add	sp, #2
                                   1339 ;src/gameboy/awele_gb.c:275: gprintf(gVainqueur);
      000644 21r00r00              1340 	ld	hl, #_gVainqueur
      000647 E5                    1341 	push	hl
      000648 CDr00r00              1342 	call	_gprintf
      00064B E8 02                 1343 	add	sp, #2
      00064D                       1344 00106$:
                                   1345 ;src/gameboy/awele_gb.c:278: revers(FALSE);
      00064D AF                    1346 	xor	a, a
      00064E F5                    1347 	push	af
      00064F 33                    1348 	inc	sp
      000650 CDr3Cr00              1349 	call	_revers
      000653 33                    1350 	inc	sp
                                   1351 ;src/gameboy/awele_gb.c:279: }
      000654 C9                    1352 	ret
                                   1353 ;src/gameboy/awele_gb.c:281: void afficherPosEval()
                                   1354 ;	---------------------------------
                                   1355 ; Function afficherPosEval
                                   1356 ; ---------------------------------
      000655                       1357 _afficherPosEval::
                                   1358 ;src/gameboy/awele_gb.c:283: gotogxy(21,0);
      000655 AF                    1359 	xor	a, a
      000656 57                    1360 	ld	d,a
      000657 1E 15                 1361 	ld	e,#0x15
      000659 D5                    1362 	push	de
      00065A CDr00r00              1363 	call	_gotogxy
      00065D E8 02                 1364 	add	sp, #2
                                   1365 ;src/gameboy/awele_gb.c:284: gprintf("%d   ",posEval);
      00065F 21r00r00              1366 	ld	hl, #_posEval
      000662 2A                    1367 	ld	a, (hl+)
      000663 66                    1368 	ld	h, (hl)
      000664 6F                    1369 	ld	l, a
      000665 E5                    1370 	push	hl
      000666 21r70r06              1371 	ld	hl, #___str_1
      000669 E5                    1372 	push	hl
      00066A CDr00r00              1373 	call	_gprintf
      00066D E8 04                 1374 	add	sp, #4
                                   1375 ;src/gameboy/awele_gb.c:285: }
      00066F C9                    1376 	ret
      000670                       1377 ___str_1:
      000670 25 64 20 20 20        1378 	.ascii "%d   "
      000675 00                    1379 	.db 0x00
                                   1380 ;src/gameboy/awele_gb.c:287: void afficherAttente(UBYTE joueur, UBYTE casejouee)
                                   1381 ;	---------------------------------
                                   1382 ; Function afficherAttente
                                   1383 ; ---------------------------------
      000676                       1384 _afficherAttente::
                                   1385 ;src/gameboy/awele_gb.c:294: gotogxy(0,14);
      000676 3E 0E                 1386 	ld	a, #0x0e
      000678 F5                    1387 	push	af
      000679 33                    1388 	inc	sp
      00067A AF                    1389 	xor	a, a
      00067B F5                    1390 	push	af
      00067C 33                    1391 	inc	sp
      00067D CDr00r00              1392 	call	_gotogxy
      000680 E8 02                 1393 	add	sp, #2
                                   1394 ;src/gameboy/awele_gb.c:295: color(BLACK, WHITE, SOLID);
      000682 AF                    1395 	xor	a, a
      000683 F5                    1396 	push	af
      000684 33                    1397 	inc	sp
      000685 AF                    1398 	xor	a, a
      000686 57                    1399 	ld	d,a
      000687 1E 03                 1400 	ld	e,#0x03
      000689 D5                    1401 	push	de
      00068A CDr00r00              1402 	call	_color
      00068D E8 03                 1403 	add	sp, #3
                                   1404 ;src/gameboy/awele_gb.c:296: gprintf("%d joue en ", joueur);
      00068F F8 02                 1405 	ldhl	sp,	#2
      000691 4E                    1406 	ld	c, (hl)
      000692 06 00                 1407 	ld	b, #0x00
      000694 C5                    1408 	push	bc
      000695 21rE5r06              1409 	ld	hl, #___str_2
      000698 E5                    1410 	push	hl
      000699 CDr00r00              1411 	call	_gprintf
      00069C E8 04                 1412 	add	sp, #4
                                   1413 ;src/gameboy/awele_gb.c:297: gprintf("%d   ", casejouee);
      00069E F8 03                 1414 	ldhl	sp,	#3
      0006A0 4E                    1415 	ld	c, (hl)
      0006A1 06 00                 1416 	ld	b, #0x00
      0006A3 C5                    1417 	push	bc
      0006A4 21rF1r06              1418 	ld	hl, #___str_3
      0006A7 E5                    1419 	push	hl
      0006A8 CDr00r00              1420 	call	_gprintf
      0006AB E8 04                 1421 	add	sp, #4
                                   1422 ;src/gameboy/awele_gb.c:298: gotogxy(2,15);
      0006AD 11 02 0F              1423 	ld	de, #0x0f02
      0006B0 D5                    1424 	push	de
      0006B1 CDr00r00              1425 	call	_gotogxy
      0006B4 E8 02                 1426 	add	sp, #2
                                   1427 ;src/gameboy/awele_gb.c:299: color(WHITE, DKGREY, SOLID);
      0006B6 AF                    1428 	xor	a, a
      0006B7 57                    1429 	ld	d,a
      0006B8 1E 02                 1430 	ld	e,#0x02
      0006BA D5                    1431 	push	de
      0006BB AF                    1432 	xor	a, a
      0006BC F5                    1433 	push	af
      0006BD 33                    1434 	inc	sp
      0006BE CDr00r00              1435 	call	_color
      0006C1 E8 03                 1436 	add	sp, #3
                                   1437 ;src/gameboy/awele_gb.c:300: gprint("B pour continuer");
      0006C3 21rF7r06              1438 	ld	hl, #___str_4
      0006C6 E5                    1439 	push	hl
      0006C7 CDr00r00              1440 	call	_gprint
      0006CA E8 02                 1441 	add	sp, #2
                                   1442 ;src/gameboy/awele_gb.c:301: waitpad(J_B);
      0006CC 3E 20                 1443 	ld	a, #0x20
      0006CE F5                    1444 	push	af
      0006CF 33                    1445 	inc	sp
      0006D0 CDr00r00              1446 	call	_waitpad
      0006D3 33                    1447 	inc	sp
                                   1448 ;src/gameboy/awele_gb.c:302: effaceLigne(15);
      0006D4 3E 0F                 1449 	ld	a, #0x0f
      0006D6 F5                    1450 	push	af
      0006D7 33                    1451 	inc	sp
      0006D8 CDr83r05              1452 	call	_effaceLigne
      0006DB 33                    1453 	inc	sp
                                   1454 ;src/gameboy/awele_gb.c:303: effaceLigne(16);
      0006DC 3E 10                 1455 	ld	a, #0x10
      0006DE F5                    1456 	push	af
      0006DF 33                    1457 	inc	sp
      0006E0 CDr83r05              1458 	call	_effaceLigne
      0006E3 33                    1459 	inc	sp
                                   1460 ;src/gameboy/awele_gb.c:304: }
      0006E4 C9                    1461 	ret
      0006E5                       1462 ___str_2:
      0006E5 25 64 20 6A 6F 75 65  1463 	.ascii "%d joue en "
             20 65 6E 20
      0006F0 00                    1464 	.db 0x00
      0006F1                       1465 ___str_3:
      0006F1 25 64 20 20 20        1466 	.ascii "%d   "
      0006F6 00                    1467 	.db 0x00
      0006F7                       1468 ___str_4:
      0006F7 42 20 70 6F 75 72 20  1469 	.ascii "B pour continuer"
             63 6F 6E 74 69 6E 75
             65 72
      000707 00                    1470 	.db 0x00
                                   1471 ;src/gameboy/awele_gb.c:306: void effacerAttente()
                                   1472 ;	---------------------------------
                                   1473 ; Function effacerAttente
                                   1474 ; ---------------------------------
      000708                       1475 _effacerAttente::
                                   1476 ;src/gameboy/awele_gb.c:308: effaceLigne(12);
      000708 3E 0C                 1477 	ld	a, #0x0c
      00070A F5                    1478 	push	af
      00070B 33                    1479 	inc	sp
      00070C CDr83r05              1480 	call	_effaceLigne
      00070F 33                    1481 	inc	sp
                                   1482 ;src/gameboy/awele_gb.c:309: effaceLigne(13);
      000710 3E 0D                 1483 	ld	a, #0x0d
      000712 F5                    1484 	push	af
      000713 33                    1485 	inc	sp
      000714 CDr83r05              1486 	call	_effaceLigne
      000717 33                    1487 	inc	sp
                                   1488 ;src/gameboy/awele_gb.c:310: }
      000718 C9                    1489 	ret
                                   1490 ;src/gameboy/awele_gb.c:312: UBYTE choixJoueur(UBYTE joueur)
                                   1491 ;	---------------------------------
                                   1492 ; Function choixJoueur
                                   1493 ; ---------------------------------
      000719                       1494 _choixJoueur::
      000719 E8 ED                 1495 	add	sp, #-19
                                   1496 ;src/gameboy/awele_gb.c:317: gotogxy(0,10);
      00071B 3E 0A                 1497 	ld	a, #0x0a
      00071D F5                    1498 	push	af
      00071E 33                    1499 	inc	sp
      00071F AF                    1500 	xor	a, a
      000720 F5                    1501 	push	af
      000721 33                    1502 	inc	sp
      000722 CDr00r00              1503 	call	_gotogxy
      000725 E8 02                 1504 	add	sp, #2
                                   1505 ;src/gameboy/awele_gb.c:318: gprintf(gJoueur[joueur]);
      000727 F8 15                 1506 	ldhl	sp,	#21
      000729 7E                    1507 	ld	a, (hl)
      00072A F8 00                 1508 	ldhl	sp,	#0
      00072C 77                    1509 	ld	(hl), a
      00072D AF                    1510 	xor	a, a
      00072E 23                    1511 	inc	hl
      00072F 77                    1512 	ld	(hl), a
      000730 C1                    1513 	pop	bc
      000731 C5                    1514 	push	bc
      000732 CB 21                 1515 	sla	c
      000734 CB 10                 1516 	rl	b
      000736 21r00r00              1517 	ld	hl, #_gJoueur
      000739 09                    1518 	add	hl, bc
      00073A 2A                    1519 	ld	a, (hl+)
      00073B 4F                    1520 	ld	c, a
      00073C 46                    1521 	ld	b, (hl)
      00073D C5                    1522 	push	bc
      00073E CDr00r00              1523 	call	_gprintf
      000741 E8 02                 1524 	add	sp, #2
                                   1525 ;src/gameboy/awele_gb.c:319: gprintf(gQuelleCase); 
      000743 21r00r00              1526 	ld	hl, #_gQuelleCase
      000746 E5                    1527 	push	hl
      000747 CDr00r00              1528 	call	_gprintf
      00074A E8 02                 1529 	add	sp, #2
                                   1530 ;src/gameboy/awele_gb.c:321: for(c=joueur*(NCASES+1);!jeu[c];c++);
      00074C F8 15                 1531 	ldhl	sp,	#21
      00074E 7E                    1532 	ld	a, (hl)
      00074F 4F                    1533 	ld	c, a
      000750 87                    1534 	add	a, a
      000751 87                    1535 	add	a, a
      000752 87                    1536 	add	a, a
      000753 81                    1537 	add	a, c
      000754 F8 10                 1538 	ldhl	sp,	#16
      000756 77                    1539 	ld	(hl), a
      000757 F8 02                 1540 	ldhl	sp,	#2
      000759 77                    1541 	ld	(hl), a
      00075A F8 10                 1542 	ldhl	sp,	#16
      00075C 4E                    1543 	ld	c, (hl)
      00075D                       1544 00124$:
      00075D 21r00r00              1545 	ld	hl, #_jeu
      000760 06 00                 1546 	ld	b, #0x00
      000762 09                    1547 	add	hl, bc
      000763 7E                    1548 	ld	a, (hl)
      000764 B7                    1549 	or	a, a
      000765 20 03                 1550 	jr	NZ, 00141$
      000767 0C                    1551 	inc	c
      000768 18 F3                 1552 	jr	00124$
      00076A                       1553 00141$:
      00076A F8 03                 1554 	ldhl	sp,	#3
      00076C 71                    1555 	ld	(hl), c
                                   1556 ;src/gameboy/awele_gb.c:322: y= 6-joueur*2;
      00076D F8 15                 1557 	ldhl	sp,	#21
      00076F 7E                    1558 	ld	a, (hl)
      000770 F8 11                 1559 	ldhl	sp,	#17
      000772 77                    1560 	ld	(hl), a
      000773 87                    1561 	add	a, a
      000774 23                    1562 	inc	hl
      000775 77                    1563 	ld	(hl), a
      000776 3E 06                 1564 	ld	a, #0x06
      000778 96                    1565 	sub	a, (hl)
      000779 F8 04                 1566 	ldhl	sp,	#4
      00077B 77                    1567 	ld	(hl), a
                                   1568 ;src/gameboy/awele_gb.c:323: do
      00077C F8 15                 1569 	ldhl	sp,	#21
      00077E 4E                    1570 	ld	c, (hl)
      00077F 06 00                 1571 	ld	b, #0x00
      000781 69                    1572 	ld	l, c
      000782 60                    1573 	ld	h, b
      000783 29                    1574 	add	hl, hl
      000784 29                    1575 	add	hl, hl
      000785 29                    1576 	add	hl, hl
      000786 09                    1577 	add	hl, bc
      000787 4D                    1578 	ld	c, l
      000788 44                    1579 	ld	b, h
      000789 F8 05                 1580 	ldhl	sp,	#5
      00078B 79                    1581 	ld	a, c
      00078C 22                    1582 	ld	(hl+), a
      00078D 70                    1583 	ld	(hl), b
      00078E F8 10                 1584 	ldhl	sp,	#16
      000790 7E                    1585 	ld	a, (hl)
      000791 F8 07                 1586 	ldhl	sp,	#7
      000793 22                    1587 	ld	(hl+), a
      000794 79                    1588 	ld	a, c
      000795 22                    1589 	ld	(hl+), a
      000796 70                    1590 	ld	(hl), b
      000797 F8 11                 1591 	ldhl	sp,	#17
      000799 7E                    1592 	ld	a, (hl)
      00079A 4F                    1593 	ld	c, a
      00079B 87                    1594 	add	a, a
      00079C 81                    1595 	add	a, c
      00079D 87                    1596 	add	a, a
      00079E 81                    1597 	add	a, c
      00079F F8 0A                 1598 	ldhl	sp,	#10
      0007A1 77                    1599 	ld	(hl), a
      0007A2 3E 01                 1600 	ld	a, #0x01
      0007A4 F8 12                 1601 	ldhl	sp,	#18
      0007A6 96                    1602 	sub	a, (hl)
      0007A7 F8 0B                 1603 	ldhl	sp,	#11
      0007A9 77                    1604 	ld	(hl), a
      0007AA                       1605 00120$:
                                   1606 ;src/gameboy/awele_gb.c:325: x=7+(7*joueur+(1-2*joueur)*(c-joueur*(NCASES+1)))*3;
      0007AA F8 03                 1607 	ldhl	sp,	#3
      0007AC 7E                    1608 	ld	a, (hl)
      0007AD F8 0C                 1609 	ldhl	sp,	#12
      0007AF 77                    1610 	ld	(hl), a
      0007B0 F8 02                 1611 	ldhl	sp,	#2
      0007B2 96                    1612 	sub	a, (hl)
      0007B3 F5                    1613 	push	af
      0007B4 33                    1614 	inc	sp
      0007B5 F8 0C                 1615 	ldhl	sp,	#12
      0007B7 7E                    1616 	ld	a, (hl)
      0007B8 F5                    1617 	push	af
      0007B9 33                    1618 	inc	sp
      0007BA CDr00r00              1619 	call	__mulschar
      0007BD E8 02                 1620 	add	sp, #2
      0007BF 7B                    1621 	ld	a, e
      0007C0 F8 0A                 1622 	ldhl	sp,	#10
      0007C2 86                    1623 	add	a, (hl)
      0007C3 4F                    1624 	ld	c, a
      0007C4 87                    1625 	add	a, a
      0007C5 81                    1626 	add	a, c
      0007C6 C6 07                 1627 	add	a, #0x07
      0007C8 F8 0D                 1628 	ldhl	sp,	#13
      0007CA 77                    1629 	ld	(hl), a
                                   1630 ;src/gameboy/awele_gb.c:326: gotogxy(x,y);revers(TRUE);gprintf("%2d", jeu[c]);
      0007CB F8 04                 1631 	ldhl	sp,	#4
      0007CD 7E                    1632 	ld	a, (hl)
      0007CE F5                    1633 	push	af
      0007CF 33                    1634 	inc	sp
      0007D0 F8 0E                 1635 	ldhl	sp,	#14
      0007D2 7E                    1636 	ld	a, (hl)
      0007D3 F5                    1637 	push	af
      0007D4 33                    1638 	inc	sp
      0007D5 CDr00r00              1639 	call	_gotogxy
      0007D8 E8 02                 1640 	add	sp, #2
      0007DA 3E 01                 1641 	ld	a, #0x01
      0007DC F5                    1642 	push	af
      0007DD 33                    1643 	inc	sp
      0007DE CDr3Cr00              1644 	call	_revers
      0007E1 33                    1645 	inc	sp
                                   1646 ;c
      0007E2 11r00r00              1647 	ld	de, #_jeu
      0007E5 F8 03                 1648 	ldhl	sp,	#3
      0007E7 6E                    1649 	ld	l, (hl)
      0007E8 26 00                 1650 	ld	h, #0x00
      0007EA 19                    1651 	add	hl, de
      0007EB E5                    1652 	push	hl
      0007EC 7D                    1653 	ld	a, l
      0007ED F8 10                 1654 	ldhl	sp,	#16
      0007EF 77                    1655 	ld	(hl), a
      0007F0 E1                    1656 	pop	hl
      0007F1 7C                    1657 	ld	a, h
      0007F2 F8 0F                 1658 	ldhl	sp,	#15
      0007F4 32                    1659 	ld	(hl-), a
      0007F5 2A                    1660 	ld	a, (hl+)
      0007F6 5F                    1661 	ld	e, a
      0007F7 56                    1662 	ld	d, (hl)
      0007F8 1A                    1663 	ld	a, (de)
      0007F9 4F                    1664 	ld	c, a
      0007FA 06 00                 1665 	ld	b, #0x00
      0007FC C5                    1666 	push	bc
      0007FD 21rD4r09              1667 	ld	hl, #___str_5
      000800 E5                    1668 	push	hl
      000801 CDr00r00              1669 	call	_gprintf
      000804 E8 04                 1670 	add	sp, #4
                                   1671 ;src/gameboy/awele_gb.c:330: do k = getkj(); while(!k);
      000806                       1672 00102$:
      000806 CDr60r00              1673 	call	_getkj
      000809 F8 10                 1674 	ldhl	sp,	#16
      00080B 73                    1675 	ld	(hl), e
      00080C 7E                    1676 	ld	a, (hl)
      00080D B7                    1677 	or	a, a
      00080E 28 F6                 1678 	jr	Z, 00102$
                                   1679 ;src/gameboy/awele_gb.c:331: if(k == KEY_LEFT)
      000810 7E                    1680 	ld	a, (hl)
      000811 D6 08                 1681 	sub	a, #0x08
      000813 20 3A                 1682 	jr	NZ, 00108$
                                   1683 ;src/gameboy/awele_gb.c:333: gotogxy(x,y);revers(FALSE);gprintf("%2d", jeu[c]);
      000815 F8 04                 1684 	ldhl	sp,	#4
      000817 7E                    1685 	ld	a, (hl)
      000818 F5                    1686 	push	af
      000819 33                    1687 	inc	sp
      00081A F8 0E                 1688 	ldhl	sp,	#14
      00081C 7E                    1689 	ld	a, (hl)
      00081D F5                    1690 	push	af
      00081E 33                    1691 	inc	sp
      00081F CDr00r00              1692 	call	_gotogxy
      000822 E8 02                 1693 	add	sp, #2
      000824 AF                    1694 	xor	a, a
      000825 F5                    1695 	push	af
      000826 33                    1696 	inc	sp
      000827 CDr3Cr00              1697 	call	_revers
      00082A 33                    1698 	inc	sp
      00082B F8 0E                 1699 	ldhl	sp,#14
      00082D 2A                    1700 	ld	a, (hl+)
      00082E 5F                    1701 	ld	e, a
      00082F 56                    1702 	ld	d, (hl)
      000830 1A                    1703 	ld	a, (de)
      000831 F8 12                 1704 	ldhl	sp,	#18
      000833 77                    1705 	ld	(hl), a
      000834 3A                    1706 	ld	a, (hl-)
      000835 77                    1707 	ld	(hl), a
      000836 AF                    1708 	xor	a, a
      000837 23                    1709 	inc	hl
      000838 32                    1710 	ld	(hl-), a
      000839 2A                    1711 	ld	a, (hl+)
      00083A 66                    1712 	ld	h, (hl)
      00083B 6F                    1713 	ld	l, a
      00083C E5                    1714 	push	hl
      00083D 21rD4r09              1715 	ld	hl, #___str_5
      000840 E5                    1716 	push	hl
      000841 CDr00r00              1717 	call	_gprintf
      000844 E8 04                 1718 	add	sp, #4
                                   1719 ;src/gameboy/awele_gb.c:334: c-=(1-2*joueur);
      000846 F8 0C                 1720 	ldhl	sp,	#12
      000848 3A                    1721 	ld	a, (hl-)
      000849 96                    1722 	sub	a, (hl)
      00084A F8 03                 1723 	ldhl	sp,	#3
      00084C 77                    1724 	ld	(hl), a
      00084D 18 37                 1725 	jr	00109$
      00084F                       1726 00108$:
                                   1727 ;src/gameboy/awele_gb.c:337: else if(k == KEY_RIGHT)
      00084F F8 10                 1728 	ldhl	sp,	#16
      000851 7E                    1729 	ld	a, (hl)
      000852 D6 09                 1730 	sub	a, #0x09
      000854 20 30                 1731 	jr	NZ, 00109$
                                   1732 ;src/gameboy/awele_gb.c:339: gotogxy(x,y);revers(FALSE);gprintf("%2d", jeu[c]);
      000856 F8 04                 1733 	ldhl	sp,	#4
      000858 7E                    1734 	ld	a, (hl)
      000859 F5                    1735 	push	af
      00085A 33                    1736 	inc	sp
      00085B F8 0E                 1737 	ldhl	sp,	#14
      00085D 7E                    1738 	ld	a, (hl)
      00085E F5                    1739 	push	af
      00085F 33                    1740 	inc	sp
      000860 CDr00r00              1741 	call	_gotogxy
      000863 E8 02                 1742 	add	sp, #2
      000865 AF                    1743 	xor	a, a
      000866 F5                    1744 	push	af
      000867 33                    1745 	inc	sp
      000868 CDr3Cr00              1746 	call	_revers
      00086B 33                    1747 	inc	sp
      00086C F8 0E                 1748 	ldhl	sp,#14
      00086E 2A                    1749 	ld	a, (hl+)
      00086F 5F                    1750 	ld	e, a
      000870 56                    1751 	ld	d, (hl)
      000871 1A                    1752 	ld	a, (de)
      000872 4F                    1753 	ld	c, a
      000873 06 00                 1754 	ld	b, #0x00
      000875 C5                    1755 	push	bc
      000876 21rD4r09              1756 	ld	hl, #___str_5
      000879 E5                    1757 	push	hl
      00087A CDr00r00              1758 	call	_gprintf
      00087D E8 04                 1759 	add	sp, #4
                                   1760 ;src/gameboy/awele_gb.c:340: c+=(1-2*joueur);
      00087F F8 0C                 1761 	ldhl	sp,	#12
      000881 3A                    1762 	ld	a, (hl-)
      000882 86                    1763 	add	a, (hl)
      000883 F8 03                 1764 	ldhl	sp,	#3
      000885 77                    1765 	ld	(hl), a
      000886                       1766 00109$:
                                   1767 ;src/gameboy/awele_gb.c:343: if(c<joueur*(NCASES+1)) c=joueur*(NCASES+1);
      000886 F8 03                 1768 	ldhl	sp,	#3
      000888 7E                    1769 	ld	a, (hl)
      000889 F8 0E                 1770 	ldhl	sp,	#14
      00088B 77                    1771 	ld	(hl), a
      00088C AF                    1772 	xor	a, a
      00088D 23                    1773 	inc	hl
      00088E 77                    1774 	ld	(hl), a
                                   1775 ;src/gameboy/awele_gb.c:344: else if(c>=(joueur+1)*NCASES+joueur) c=(joueur+1)*NCASES+joueur-1;
      00088F E1                    1776 	pop	hl
      000890 E5                    1777 	push	hl
      000891 23                    1778 	inc	hl
      000892 29                    1779 	add	hl, hl
      000893 29                    1780 	add	hl, hl
      000894 29                    1781 	add	hl, hl
      000895 4D                    1782 	ld	c, l
      000896 44                    1783 	ld	b, h
      000897 E1                    1784 	pop	hl
      000898 E5                    1785 	push	hl
      000899 09                    1786 	add	hl, bc
      00089A E5                    1787 	push	hl
      00089B 7D                    1788 	ld	a, l
      00089C F8 13                 1789 	ldhl	sp,	#19
      00089E 77                    1790 	ld	(hl), a
      00089F E1                    1791 	pop	hl
      0008A0 7C                    1792 	ld	a, h
      0008A1 F8 12                 1793 	ldhl	sp,	#18
      0008A3 77                    1794 	ld	(hl), a
                                   1795 ;src/gameboy/awele_gb.c:343: if(c<joueur*(NCASES+1)) c=joueur*(NCASES+1);
      0008A4 F8 0E                 1796 	ldhl	sp,	#14
      0008A6 5D                    1797 	ld	e, l
      0008A7 54                    1798 	ld	d, h
      0008A8 F8 05                 1799 	ldhl	sp,	#5
      0008AA 1A                    1800 	ld	a, (de)
      0008AB 96                    1801 	sub	a, (hl)
      0008AC 23                    1802 	inc	hl
      0008AD 13                    1803 	inc	de
      0008AE 1A                    1804 	ld	a, (de)
      0008AF 9E                    1805 	sbc	a, (hl)
      0008B0 1A                    1806 	ld	a, (de)
      0008B1 57                    1807 	ld	d, a
      0008B2 CB 7E                 1808 	bit	7, (hl)
      0008B4 28 07                 1809 	jr	Z, 00199$
      0008B6 CB 7A                 1810 	bit	7, d
      0008B8 20 08                 1811 	jr	NZ, 00200$
      0008BA BF                    1812 	cp	a, a
      0008BB 18 05                 1813 	jr	00200$
      0008BD                       1814 00199$:
      0008BD CB 7A                 1815 	bit	7, d
      0008BF 28 01                 1816 	jr	Z, 00200$
      0008C1 37                    1817 	scf
      0008C2                       1818 00200$:
      0008C2 30 08                 1819 	jr	NC, 00113$
      0008C4 F8 07                 1820 	ldhl	sp,	#7
      0008C6 7E                    1821 	ld	a, (hl)
      0008C7 F8 03                 1822 	ldhl	sp,	#3
      0008C9 77                    1823 	ld	(hl), a
      0008CA 18 2E                 1824 	jr	00114$
      0008CC                       1825 00113$:
                                   1826 ;src/gameboy/awele_gb.c:344: else if(c>=(joueur+1)*NCASES+joueur) c=(joueur+1)*NCASES+joueur-1;
      0008CC F8 0E                 1827 	ldhl	sp,	#14
      0008CE 5D                    1828 	ld	e, l
      0008CF 54                    1829 	ld	d, h
      0008D0 F8 11                 1830 	ldhl	sp,	#17
      0008D2 1A                    1831 	ld	a, (de)
      0008D3 96                    1832 	sub	a, (hl)
      0008D4 23                    1833 	inc	hl
      0008D5 13                    1834 	inc	de
      0008D6 1A                    1835 	ld	a, (de)
      0008D7 9E                    1836 	sbc	a, (hl)
      0008D8 1A                    1837 	ld	a, (de)
      0008D9 57                    1838 	ld	d, a
      0008DA CB 7E                 1839 	bit	7, (hl)
      0008DC 28 07                 1840 	jr	Z, 00201$
      0008DE CB 7A                 1841 	bit	7, d
      0008E0 20 08                 1842 	jr	NZ, 00202$
      0008E2 BF                    1843 	cp	a, a
      0008E3 18 05                 1844 	jr	00202$
      0008E5                       1845 00201$:
      0008E5 CB 7A                 1846 	bit	7, d
      0008E7 28 01                 1847 	jr	Z, 00202$
      0008E9 37                    1848 	scf
      0008EA                       1849 00202$:
      0008EA 38 0E                 1850 	jr	C, 00114$
      0008EC F8 15                 1851 	ldhl	sp,	#21
      0008EE 7E                    1852 	ld	a, (hl)
      0008EF 6F                    1853 	ld	l, a
      0008F0 2C                    1854 	inc	l
      0008F1 29                    1855 	add	hl, hl
      0008F2 29                    1856 	add	hl, hl
      0008F3 29                    1857 	add	hl, hl
      0008F4 85                    1858 	add	a, l
      0008F5 C6 FF                 1859 	add	a, #0xff
      0008F7 F8 03                 1860 	ldhl	sp,	#3
      0008F9 77                    1861 	ld	(hl), a
      0008FA                       1862 00114$:
                                   1863 ;src/gameboy/awele_gb.c:325: x=7+(7*joueur+(1-2*joueur)*(c-joueur*(NCASES+1)))*3;
      0008FA F8 03                 1864 	ldhl	sp,	#3
      0008FC 7E                    1865 	ld	a, (hl)
      0008FD F8 0C                 1866 	ldhl	sp,	#12
                                   1867 ;src/gameboy/awele_gb.c:346: x=7+(7*joueur+(1-2*joueur)*(c-joueur*(NCASES+1)))*3;
      0008FF 77                    1868 	ld	(hl), a
      000900 F8 07                 1869 	ldhl	sp,	#7
      000902 96                    1870 	sub	a, (hl)
      000903 F5                    1871 	push	af
      000904 33                    1872 	inc	sp
      000905 F8 0C                 1873 	ldhl	sp,	#12
      000907 7E                    1874 	ld	a, (hl)
      000908 F5                    1875 	push	af
      000909 33                    1876 	inc	sp
      00090A CDr00r00              1877 	call	__mulschar
      00090D E8 02                 1878 	add	sp, #2
      00090F 7B                    1879 	ld	a, e
      000910 F8 0A                 1880 	ldhl	sp,	#10
      000912 86                    1881 	add	a, (hl)
      000913 4F                    1882 	ld	c, a
      000914 87                    1883 	add	a, a
      000915 81                    1884 	add	a, c
      000916 C6 07                 1885 	add	a, #0x07
      000918 F8 0D                 1886 	ldhl	sp,	#13
      00091A 77                    1887 	ld	(hl), a
                                   1888 ;src/gameboy/awele_gb.c:347: gotogxy(x,y);revers(TRUE);gprintf("%2d", jeu[c]);
      00091B F8 04                 1889 	ldhl	sp,	#4
      00091D 7E                    1890 	ld	a, (hl)
      00091E F5                    1891 	push	af
      00091F 33                    1892 	inc	sp
      000920 F8 0E                 1893 	ldhl	sp,	#14
      000922 7E                    1894 	ld	a, (hl)
      000923 F5                    1895 	push	af
      000924 33                    1896 	inc	sp
      000925 CDr00r00              1897 	call	_gotogxy
      000928 E8 02                 1898 	add	sp, #2
      00092A 3E 01                 1899 	ld	a, #0x01
      00092C F5                    1900 	push	af
      00092D 33                    1901 	inc	sp
      00092E CDr3Cr00              1902 	call	_revers
      000931 33                    1903 	inc	sp
                                   1904 ;src/gameboy/awele_gb.c:326: gotogxy(x,y);revers(TRUE);gprintf("%2d", jeu[c]);
                                   1905 ;c
      000932 11r00r00              1906 	ld	de, #_jeu
      000935 F8 03                 1907 	ldhl	sp,	#3
      000937 6E                    1908 	ld	l, (hl)
      000938 26 00                 1909 	ld	h, #0x00
      00093A 19                    1910 	add	hl, de
      00093B E5                    1911 	push	hl
      00093C 7D                    1912 	ld	a, l
      00093D F8 10                 1913 	ldhl	sp,	#16
      00093F 77                    1914 	ld	(hl), a
      000940 E1                    1915 	pop	hl
      000941 7C                    1916 	ld	a, h
      000942 F8 0F                 1917 	ldhl	sp,	#15
                                   1918 ;src/gameboy/awele_gb.c:347: gotogxy(x,y);revers(TRUE);gprintf("%2d", jeu[c]);
      000944 32                    1919 	ld	(hl-), a
      000945 2A                    1920 	ld	a, (hl+)
      000946 5F                    1921 	ld	e, a
      000947 56                    1922 	ld	d, (hl)
      000948 1A                    1923 	ld	a, (de)
      000949 4F                    1924 	ld	c, a
      00094A 06 00                 1925 	ld	b, #0x00
      00094C C5                    1926 	push	bc
      00094D 21rD4r09              1927 	ld	hl, #___str_5
      000950 E5                    1928 	push	hl
      000951 CDr00r00              1929 	call	_gprintf
      000954 E8 04                 1930 	add	sp, #4
                                   1931 ;src/gameboy/awele_gb.c:350: } while(k != KEY_RETURN);
      000956 F8 10                 1932 	ldhl	sp,	#16
      000958 7E                    1933 	ld	a, (hl)
      000959 D6 0D                 1934 	sub	a, #0x0d
      00095B C2r06r08              1935 	jp	NZ,00102$
                                   1936 ;src/gameboy/awele_gb.c:351: gotogxy(x,y);revers(FALSE);gprintf("%2d", jeu[c]);
      00095E F8 04                 1937 	ldhl	sp,	#4
      000960 7E                    1938 	ld	a, (hl)
      000961 F5                    1939 	push	af
      000962 33                    1940 	inc	sp
      000963 F8 0E                 1941 	ldhl	sp,	#14
      000965 7E                    1942 	ld	a, (hl)
      000966 F5                    1943 	push	af
      000967 33                    1944 	inc	sp
      000968 CDr00r00              1945 	call	_gotogxy
      00096B E8 02                 1946 	add	sp, #2
      00096D AF                    1947 	xor	a, a
      00096E F5                    1948 	push	af
      00096F 33                    1949 	inc	sp
      000970 CDr3Cr00              1950 	call	_revers
      000973 33                    1951 	inc	sp
      000974 F8 0E                 1952 	ldhl	sp,#14
      000976 2A                    1953 	ld	a, (hl+)
      000977 5F                    1954 	ld	e, a
      000978 56                    1955 	ld	d, (hl)
      000979 1A                    1956 	ld	a, (de)
      00097A 4F                    1957 	ld	c, a
      00097B 06 00                 1958 	ld	b, #0x00
      00097D C5                    1959 	push	bc
      00097E 21rD4r09              1960 	ld	hl, #___str_5
      000981 E5                    1961 	push	hl
      000982 CDr00r00              1962 	call	_gprintf
      000985 E8 04                 1963 	add	sp, #4
                                   1964 ;src/gameboy/awele_gb.c:353: } while(c<joueur*(NCASES+1) || c>=(joueur+1)*NCASES+joueur || !jeu[c]);
      000987 F8 03                 1965 	ldhl	sp,	#3
      000989 4E                    1966 	ld	c, (hl)
      00098A 06 00                 1967 	ld	b, #0x00
      00098C F8 08                 1968 	ldhl	sp,	#8
      00098E 79                    1969 	ld	a, c
      00098F 96                    1970 	sub	a, (hl)
      000990 23                    1971 	inc	hl
      000991 78                    1972 	ld	a, b
      000992 9E                    1973 	sbc	a, (hl)
      000993 78                    1974 	ld	a, b
      000994 57                    1975 	ld	d, a
      000995 CB 7E                 1976 	bit	7, (hl)
      000997 28 07                 1977 	jr	Z, 00205$
      000999 CB 7A                 1978 	bit	7, d
      00099B 20 08                 1979 	jr	NZ, 00206$
      00099D BF                    1980 	cp	a, a
      00099E 18 05                 1981 	jr	00206$
      0009A0                       1982 00205$:
      0009A0 CB 7A                 1983 	bit	7, d
      0009A2 28 01                 1984 	jr	Z, 00206$
      0009A4 37                    1985 	scf
      0009A5                       1986 00206$:
      0009A5 DArAAr07              1987 	jp	C, 00120$
      0009A8 F8 11                 1988 	ldhl	sp,	#17
      0009AA 79                    1989 	ld	a, c
      0009AB 96                    1990 	sub	a, (hl)
      0009AC 23                    1991 	inc	hl
      0009AD 78                    1992 	ld	a, b
      0009AE 9E                    1993 	sbc	a, (hl)
      0009AF 78                    1994 	ld	a, b
      0009B0 57                    1995 	ld	d, a
      0009B1 CB 7E                 1996 	bit	7, (hl)
      0009B3 28 07                 1997 	jr	Z, 00207$
      0009B5 CB 7A                 1998 	bit	7, d
      0009B7 20 08                 1999 	jr	NZ, 00208$
      0009B9 BF                    2000 	cp	a, a
      0009BA 18 05                 2001 	jr	00208$
      0009BC                       2002 00207$:
      0009BC CB 7A                 2003 	bit	7, d
      0009BE 28 01                 2004 	jr	Z, 00208$
      0009C0 37                    2005 	scf
      0009C1                       2006 00208$:
      0009C1 D2rAAr07              2007 	jp	NC, 00120$
      0009C4 F8 0E                 2008 	ldhl	sp,#14
      0009C6 2A                    2009 	ld	a, (hl+)
      0009C7 5F                    2010 	ld	e, a
      0009C8 56                    2011 	ld	d, (hl)
      0009C9 1A                    2012 	ld	a, (de)
      0009CA B7                    2013 	or	a, a
      0009CB CArAAr07              2014 	jp	Z, 00120$
                                   2015 ;src/gameboy/awele_gb.c:355: return(c);
      0009CE F8 03                 2016 	ldhl	sp,	#3
      0009D0 5E                    2017 	ld	e, (hl)
                                   2018 ;src/gameboy/awele_gb.c:356: }
      0009D1 E8 13                 2019 	add	sp, #19
      0009D3 C9                    2020 	ret
      0009D4                       2021 ___str_5:
      0009D4 25 32 64              2022 	.ascii "%2d"
      0009D7 00                    2023 	.db 0x00
                                   2024 	.area _CODE
                                   2025 	.area _CABS (ABS)
